

Microchip MPLAB XC8 Assembler V2.36 build 20220127204148 
                                                                                               Mon May 30 15:22:36 2022

Microchip MPLAB XC8 C Compiler v2.36 (Free license) build 20220127204148 Og1 
     1                           	processor	18F4550
     2                           	fnconf	rparam,??,?,0
     3                           	pagewidth 120
     4                           	opt	flic
     5                           	psect	idataBANK0,global,class=CODE,delta=1,noexec
     6                           	psect	smallconst,global,reloc=2,class=SMALLCONST,delta=1,noexec
     7                           	psect	cinit,global,reloc=2,class=CODE,delta=1
     8                           	psect	bssBANK0,global,class=BANK0,space=1,delta=1,lowdata,noexec
     9                           	psect	dataBANK0,global,class=BANK0,space=1,delta=1,lowdata,noexec
    10                           	psect	bssBANK1,global,class=BANK1,space=1,delta=1,lowdata,noexec
    11                           	psect	cstackBANK0,global,class=BANK0,space=1,delta=1,lowdata,noexec
    12                           	psect	cstackCOMRAM,global,class=COMRAM,space=1,delta=1,lowdata,noexec
    13                           	psect	text0,global,reloc=2,class=CODE,delta=1
    14                           	psect	text1,global,reloc=2,class=CODE,delta=1
    15                           	psect	text2,global,reloc=2,class=CODE,delta=1
    16                           	psect	text3,global,reloc=2,class=CODE,delta=1
    17                           	psect	text4,global,reloc=2,class=CODE,delta=1,group=3
    18                           	psect	text5,global,reloc=2,class=CODE,delta=1,group=1
    19                           	psect	text6,global,reloc=2,class=CODE,delta=1,group=1
    20                           	psect	text7,global,reloc=2,class=CODE,delta=1,group=3
    21                           	psect	text8,global,reloc=2,class=CODE,delta=1,group=1
    22                           	psect	text9,global,reloc=2,class=CODE,delta=1,group=3
    23                           	psect	text10,global,reloc=2,class=CODE,delta=1,group=3
    24                           	psect	text11,global,reloc=2,class=CODE,delta=1,group=3
    25                           	psect	text12,global,reloc=2,class=CODE,delta=1,group=1
    26                           	psect	text13,global,reloc=2,class=CODE,delta=1,group=3
    27                           	psect	text14,global,reloc=2,class=CODE,delta=1,group=3
    28                           	psect	text15,global,reloc=2,class=CODE,delta=1,group=3
    29                           	psect	text16,global,reloc=2,class=CODE,delta=1,group=3
    30                           	psect	text17,global,reloc=2,class=CODE,delta=1,group=3
    31                           	psect	text18,global,reloc=2,class=CODE,delta=1,group=3
    32                           	psect	text19,global,reloc=2,class=CODE,delta=1,group=2
    33                           	psect	text20,global,reloc=2,class=CODE,delta=1,group=2
    34                           	psect	text21,global,reloc=2,class=CODE,delta=1,group=2
    35                           	psect	text22,global,reloc=2,class=CODE,delta=1,group=2
    36                           	psect	text23,global,reloc=2,class=CODE,delta=1,group=2
    37                           	psect	text24,global,reloc=2,class=CODE,delta=1,group=2
    38                           	psect	text25,global,reloc=2,class=CODE,delta=1,group=2
    39                           	psect	text26,global,reloc=2,class=CODE,delta=1,group=2
    40                           	psect	text27,global,reloc=2,class=CODE,delta=1,group=2
    41                           	psect	text28,global,reloc=2,class=CODE,delta=1,group=2
    42                           	psect	text29,global,reloc=2,class=CODE,delta=1,group=3
    43                           	psect	text30,global,reloc=2,class=CODE,delta=1,group=3
    44                           	psect	text31,global,reloc=2,class=CODE,delta=1,group=3
    45                           	psect	text32,global,reloc=2,class=CODE,delta=1,group=2
    46                           	psect	text33,global,reloc=2,class=CODE,delta=1
    47                           	psect	text34,global,reloc=2,class=CODE,delta=1
    48                           	psect	text35,global,reloc=2,class=CODE,delta=1
    49                           	psect	text36,global,reloc=2,class=CODE,delta=1
    50                           	psect	text37,global,reloc=2,class=CODE,delta=1,group=2
    51                           	psect	text38,global,reloc=2,class=CODE,delta=1
    52                           	psect	text39,global,reloc=2,class=CODE,delta=1
    53                           	psect	text40,global,reloc=2,class=CODE,delta=1
    54                           	psect	text41,global,reloc=2,class=CODE,delta=1
    55                           	psect	intsave_regs,global,class=BIGRAM,space=1,delta=1,noexec
    56                           	psect	rparam,global,class=COMRAM,space=1,delta=1,noexec
    57                           	psect	idloc,global,abs,ovrld,class=IDLOC,space=5,delta=1,noexec
    58                           	psect	config,global,abs,ovrld,class=CONFIG,space=4,delta=1,noexec
    59  0000                     
    60                           ; Version 2.40
    61                           ; Generated 17/11/2021 GMT
    62                           ; 
    63                           ; Copyright © 2021, Microchip Technology Inc. and its subsidiaries ("Microchip")
    64                           ; All rights reserved.
    65                           ; 
    66                           ; This software is developed by Microchip Technology Inc. and its subsidiaries ("Microch
      +                          ip").
    67                           ; 
    68                           ; Redistribution and use in source and binary forms, with or without modification, are
    69                           ; permitted provided that the following conditions are met:
    70                           ; 
    71                           ;     1. Redistributions of source code must retain the above copyright notice, this lis
      +                          t of
    72                           ;        conditions and the following disclaimer.
    73                           ; 
    74                           ;     2. Redistributions in binary form must reproduce the above copyright notice, this 
      +                          list
    75                           ;        of conditions and the following disclaimer in the documentation and/or other
    76                           ;        materials provided with the distribution. Publication is not required when
    77                           ;        this file is used in an embedded application.
    78                           ; 
    79                           ;     3. Microchip's name may not be used to endorse or promote products derived from th
      +                          is
    80                           ;        software without specific prior written permission.
    81                           ; 
    82                           ; THIS SOFTWARE IS PROVIDED BY MICROCHIP "AS IS" AND ANY EXPRESS OR IMPLIED WARRANTIES,
    83                           ; INCLUDING, BUT NOT LIMITED TO, THE IMPLIED WARRANTIES OF MERCHANTABILITY AND FITNESS F
      +                          OR
    84                           ; PURPOSE ARE DISCLAIMED.  IN NO EVENT SHALL MICROCHIP BE LIABLE FOR ANY DIRECT, INDIREC
      +                          T,
    85                           ; INCIDENTAL, SPECIAL, EXEMPLARY, OR CONSEQUENTIAL DAMAGES (INCLUDING BUT NOT LIMITED TO
    86                           ; PROCUREMENT OF SUBSTITUTE GOODS OR SERVICES; LOSS OF USE, DATA OR PROFITS; OR BUSINESS
    87                           ; INTERRUPTION) HOWSOEVER CAUSED AND ON ANY THEORY OF LIABILITY, WHETHER IN CONTRACT, ST
      +                          RICT
    88                           ; LIABILITY, OR TORT (INCLUDING NEGLIGENCE OR OTHERWISE) ARISING IN ANY WAY OUT OF THE U
      +                          SE OF
    89                           ; THIS SOFTWARE, EVEN IF ADVISED OF THE POSSIBILITY OF SUCH DAMAGE.
    90                           ; 
    91                           ; 
    92                           ; Code-generator required, PIC18F4550 Definitions
    93                           ; 
    94                           ; SFR Addresses
    95  0000                     
    96                           	psect	idataBANK0
    97  003A36                     __pidataBANK0:
    98                           	callstack 0
    99                           
   100                           ;initializer for Inicializa_LCD@ini
   101  003A36  38                 	db	56
   102  003A37  38                 	db	56
   103  003A38  38                 	db	56
   104  003A39  0C                 	db	12
   105  003A3A  06                 	db	6
   106  003A3B  01                 	db	1
   107  003A3C  00                 	db	0
   108  0000                     _TRISCbits	set	3988
   109  0000                     _TRISB	set	3987
   110  0000                     _PORTC	set	3970
   111  0000                     _ADRESL	set	4035
   112  0000                     _ADRESH	set	4036
   113  0000                     _ADCON0	set	4034
   114  0000                     _TRISA	set	3986
   115  0000                     _TRISEbits	set	3990
   116  0000                     _PORTB	set	3969
   117  0000                     _PORTCbits	set	3970
   118  0000                     _ADCON0bits	set	4034
   119  0000                     _PORTE	set	3972
   120  0000                     _PORTBbits	set	3969
   121  0000                     _PORTD	set	3971
   122  0000                     _PORTEbits	set	3972
   123  0000                     _TRISAbits	set	3986
   124  0000                     _TRISD	set	3989
   125  0000                     _ADCON1	set	4033
   126  0000                     _ADCON2	set	4032
   127  0000                     _TRISE	set	3990
   128                           
   129                           	psect	smallconst
   130  000800                     __psmallconst:
   131                           	callstack 0
   132  000800  00                 	db	0
   133  000801                     STR_2:
   134  000801  65                 	db	101	;'e'
   135  000802  20                 	db	32
   136  000803  41                 	db	65	;'A'
   137  000804  71                 	db	113	;'q'
   138  000805  75                 	db	117	;'u'
   139  000806  65                 	db	101	;'e'
   140  000807  63                 	db	99	;'c'
   141  000808  65                 	db	101	;'e'
   142  000809  6E                 	db	110	;'n'
   143  00080A  64                 	db	100	;'d'
   144  00080B  6F                 	db	111	;'o'
   145  00080C  21                 	db	33
   146  00080D  00                 	db	0
   147  00080E                     STR_3:
   148  00080E  54                 	db	84	;'T'
   149  00080F  65                 	db	101	;'e'
   150  000810  6D                 	db	109	;'m'
   151  000811  70                 	db	112	;'p'
   152  000812  65                 	db	101	;'e'
   153  000813  72                 	db	114	;'r'
   154  000814  61                 	db	97	;'a'
   155  000815  74                 	db	116	;'t'
   156  000816  75                 	db	117	;'u'
   157  000817  72                 	db	114	;'r'
   158  000818  61                 	db	97	;'a'
   159  000819  3A                 	db	58	;':'
   160  00081A  00                 	db	0
   161  00081B                     STR_6:
   162  00081B  45                 	db	69	;'E'
   163  00081C  73                 	db	115	;'s'
   164  00081D  76                 	db	118	;'v'
   165  00081E  61                 	db	97	;'a'
   166  00081F  7A                 	db	122	;'z'
   167  000820  69                 	db	105	;'i'
   168  000821  61                 	db	97	;'a'
   169  000822  6E                 	db	110	;'n'
   170  000823  64                 	db	100	;'d'
   171  000824  6F                 	db	111	;'o'
   172  000825  21                 	db	33
   173  000826  00                 	db	0
   174  000827                     STR_1:
   175  000827  4D                 	db	77	;'M'
   176  000828  69                 	db	105	;'i'
   177  000829  73                 	db	115	;'s'
   178  00082A  74                 	db	116	;'t'
   179  00082B  75                 	db	117	;'u'
   180  00082C  72                 	db	114	;'r'
   181  00082D  61                 	db	97	;'a'
   182  00082E  6E                 	db	110	;'n'
   183  00082F  64                 	db	100	;'d'
   184  000830  6F                 	db	111	;'o'
   185  000831  00                 	db	0
   186  000832                     STR_7:
   187  000832  45                 	db	69	;'E'
   188  000833  6E                 	db	110	;'n'
   189  000834  63                 	db	99	;'c'
   190  000835  68                 	db	104	;'h'
   191  000836  65                 	db	101	;'e'
   192  000837  6E                 	db	110	;'n'
   193  000838  64                 	db	100	;'d'
   194  000839  6F                 	db	111	;'o'
   195  00083A  21                 	db	33
   196  00083B  00                 	db	0
   197  00083C                     STR_4:
   198  00083C  43                 	db	67	;'C'
   199  00083D  65                 	db	101	;'e'
   200  00083E  6C                 	db	108	;'l'
   201  00083F  73                 	db	115	;'s'
   202  000840  69                 	db	105	;'i'
   203  000841  75                 	db	117	;'u'
   204  000842  73                 	db	115	;'s'
   205  000843  00                 	db	0
   206  000844                     STR_5:
   207  000844  25                 	db	37
   208  000845  2E                 	db	46
   209  000846  32                 	db	50	;'2'
   210  000847  66                 	db	102	;'f'
   211  000848  00                 	db	0
   212  000849                     STR_8:
   213  000849  49                 	db	73	;'I'
   214  00084A  4E                 	db	78	;'N'
   215  00084B  46                 	db	70	;'F'
   216  00084C  00                 	db	0
   217  00084D                     STR_12:
   218  00084D  4E                 	db	78	;'N'
   219  00084E  41                 	db	65	;'A'
   220  00084F  4E                 	db	78	;'N'
   221  000850  00                 	db	0
   222  000851                     STR_9:
   223  000851  69                 	db	105	;'i'
   224  000852  6E                 	db	110	;'n'
   225  000853  66                 	db	102	;'f'
   226  000854  00                 	db	0
   227  000855                     STR_13:
   228  000855  6E                 	db	110	;'n'
   229  000856  61                 	db	97	;'a'
   230  000857  6E                 	db	110	;'n'
   231  000858  00                 	db	0
   232  000859                     STR_16:
   233  000859  6C                 	db	108	;'l'
   234  00085A  66                 	db	102	;'f'
   235  00085B  00                 	db	0
   236  00085C  00                 	db	0	; dummy byte at the end
   237  0000                     
   238                           ; #config settings
   239                           
   240                           	psect	cinit
   241  003818                     __pcinit:
   242                           	callstack 0
   243  003818                     start_initialization:
   244                           	callstack 0
   245  003818                     __initialization:
   246                           	callstack 0
   247                           
   248                           ; Initialize objects allocated to BANK0 (7 bytes)
   249                           ; load TBLPTR registers with __pidataBANK0
   250  003818  0E36               	movlw	low __pidataBANK0
   251  00381A  6EF6               	movwf	tblptrl,c
   252  00381C  0E3A               	movlw	high __pidataBANK0
   253  00381E  6EF7               	movwf	tblptrh,c
   254  003820  0E00               	movlw	low (__pidataBANK0 shr (0+16))
   255  003822  6EF8               	movwf	tblptru,c
   256  003824  EE00  F0D3         	lfsr	0,__pdataBANK0
   257  003828  EE10 F007          	lfsr	1,7
   258  00382C                     copy_data0:
   259  00382C  0009               	tblrd		*+
   260  00382E  CFF5 FFEE          	movff	tablat,postinc0
   261  003832  50E5               	movf	postdec1,w,c
   262  003834  50E1               	movf	fsr1l,w,c
   263  003836  E1FA               	bnz	copy_data0
   264                           
   265                           ; Clear objects allocated to BANK1 (80 bytes)
   266  003838  EE01  F000         	lfsr	0,__pbssBANK1
   267  00383C  0E50               	movlw	80
   268  00383E                     clear_0:
   269  00383E  6AEE               	clrf	postinc0,c
   270  003840  06E8               	decf	wreg,f,c
   271  003842  E1FD               	bnz	clear_0
   272                           
   273                           ; Clear objects allocated to BANK0 (16 bytes)
   274  003844  EE00  F0C3         	lfsr	0,__pbssBANK0
   275  003848  0E10               	movlw	16
   276  00384A                     clear_1:
   277  00384A  6AEE               	clrf	postinc0,c
   278  00384C  06E8               	decf	wreg,f,c
   279  00384E  E1FD               	bnz	clear_1
   280  003850                     end_of_initialization:
   281                           	callstack 0
   282  003850                     __end_of__initialization:
   283                           	callstack 0
   284  003850  0E00               	movlw	low (__Lmediumconst shr (0+16))
   285  003852  6EF8               	movwf	tblptru,c
   286  003854  0100               	movlb	0
   287  003856  EF5C  F017         	goto	_main	;jump to C main() function
   288                           
   289                           	psect	bssBANK0
   290  0000C3                     __pbssBANK0:
   291                           	callstack 0
   292  0000C3                     floorf@F526:
   293                           	callstack 0
   294  0000C3                     	ds	4
   295  0000C7                     ___fpclassifyf@F465:
   296                           	callstack 0
   297  0000C7                     	ds	4
   298  0000CB                     _nout:
   299                           	callstack 0
   300  0000CB                     	ds	2
   301  0000CD                     _width:
   302                           	callstack 0
   303  0000CD                     	ds	2
   304  0000CF                     _prec:
   305                           	callstack 0
   306  0000CF                     	ds	2
   307  0000D1                     _flags:
   308                           	callstack 0
   309  0000D1                     	ds	2
   310                           
   311                           	psect	dataBANK0
   312  0000D3                     __pdataBANK0:
   313                           	callstack 0
   314  0000D3                     Inicializa_LCD@ini:
   315                           	callstack 0
   316  0000D3                     	ds	7
   317                           
   318                           	psect	bssBANK1
   319  000100                     __pbssBANK1:
   320                           	callstack 0
   321  000100                     _dbuf:
   322                           	callstack 0
   323  000100                     	ds	80
   324                           
   325                           	psect	cstackBANK0
   326  000060                     __pcstackBANK0:
   327                           	callstack 0
   328  000060                     _efgtoa$1050:
   329                           	callstack 0
   330                           
   331                           ; 2 bytes @ 0x0
   332  000060                     	ds	2
   333  000062                     _efgtoa$1058:
   334                           	callstack 0
   335                           
   336                           ; 2 bytes @ 0x2
   337  000062                     	ds	2
   338  000064                     _efgtoa$1059:
   339                           	callstack 0
   340                           
   341                           ; 2 bytes @ 0x4
   342  000064                     	ds	2
   343  000066                     efgtoa@t:
   344                           	callstack 0
   345                           
   346                           ; 2 bytes @ 0x6
   347  000066                     	ds	2
   348  000068                     efgtoa@pp:
   349                           	callstack 0
   350                           
   351                           ; 2 bytes @ 0x8
   352  000068                     	ds	2
   353  00006A                     efgtoa@ne:
   354                           	callstack 0
   355                           
   356                           ; 2 bytes @ 0xA
   357  00006A                     	ds	2
   358  00006C                     efgtoa@m:
   359                           	callstack 0
   360                           
   361                           ; 2 bytes @ 0xC
   362  00006C                     	ds	2
   363  00006E                     efgtoa@ou:
   364                           	callstack 0
   365                           
   366                           ; 4 bytes @ 0xE
   367  00006E                     	ds	4
   368  000072                     efgtoa@d:
   369                           	callstack 0
   370                           
   371                           ; 2 bytes @ 0x12
   372  000072                     	ds	2
   373  000074                     efgtoa@sign:
   374                           	callstack 0
   375                           
   376                           ; 2 bytes @ 0x14
   377  000074                     	ds	2
   378  000076                     efgtoa@p:
   379                           	callstack 0
   380                           
   381                           ; 2 bytes @ 0x16
   382  000076                     	ds	2
   383  000078                     efgtoa@w:
   384                           	callstack 0
   385                           
   386                           ; 2 bytes @ 0x18
   387  000078                     	ds	2
   388  00007A                     efgtoa@nmode:
   389                           	callstack 0
   390                           
   391                           ; 1 bytes @ 0x1A
   392  00007A                     	ds	1
   393  00007B                     efgtoa@mode:
   394                           	callstack 0
   395                           
   396                           ; 1 bytes @ 0x1B
   397  00007B                     	ds	1
   398  00007C                     efgtoa@h:
   399                           	callstack 0
   400                           
   401                           ; 4 bytes @ 0x1C
   402  00007C                     	ds	4
   403  000080                     efgtoa@l:
   404                           	callstack 0
   405                           
   406                           ; 4 bytes @ 0x20
   407  000080                     	ds	4
   408  000084                     efgtoa@i:
   409                           	callstack 0
   410                           
   411                           ; 2 bytes @ 0x24
   412  000084                     	ds	2
   413  000086                     efgtoa@g:
   414                           	callstack 0
   415                           
   416                           ; 4 bytes @ 0x26
   417  000086                     	ds	4
   418  00008A                     efgtoa@e:
   419                           	callstack 0
   420                           
   421                           ; 2 bytes @ 0x2A
   422  00008A                     	ds	2
   423  00008C                     efgtoa@n:
   424                           	callstack 0
   425                           
   426                           ; 2 bytes @ 0x2C
   427  00008C                     	ds	2
   428  00008E                     efgtoa@u:
   429                           	callstack 0
   430                           
   431                           ; 4 bytes @ 0x2E
   432  00008E                     	ds	4
   433  000092                     ?_vfprintf:
   434                           	callstack 0
   435  000092                     vfprintf@fp:
   436                           	callstack 0
   437                           
   438                           ; 2 bytes @ 0x32
   439  000092                     	ds	2
   440  000094                     vfprintf@fmt:
   441                           	callstack 0
   442                           
   443                           ; 2 bytes @ 0x34
   444  000094                     	ds	2
   445  000096                     vfprintf@ap:
   446                           	callstack 0
   447                           
   448                           ; 2 bytes @ 0x36
   449  000096                     	ds	2
   450  000098                     ?_sprintf:
   451                           	callstack 0
   452  000098                     sprintf@s:
   453                           	callstack 0
   454                           
   455                           ; 2 bytes @ 0x38
   456  000098                     	ds	2
   457  00009A                     sprintf@fmt:
   458                           	callstack 0
   459                           
   460                           ; 2 bytes @ 0x3A
   461  00009A                     	ds	6
   462  0000A0                     sprintf@ap:
   463                           	callstack 0
   464                           
   465                           ; 2 bytes @ 0x40
   466  0000A0                     	ds	2
   467  0000A2                     sprintf@f:
   468                           	callstack 0
   469                           
   470                           ; 11 bytes @ 0x42
   471  0000A2                     	ds	11
   472  0000AD                     potentiometer_temperature@temperatura_texto:
   473                           	callstack 0
   474                           
   475                           ; 10 bytes @ 0x4D
   476  0000AD                     	ds	10
   477  0000B7                     potentiometer_temperature@voltagem:
   478                           	callstack 0
   479                           
   480                           ; 4 bytes @ 0x57
   481  0000B7                     	ds	4
   482  0000BB                     potentiometer_temperature@digital:
   483                           	callstack 0
   484                           
   485                           ; 2 bytes @ 0x5B
   486  0000BB                     	ds	2
   487  0000BD                     potentiometer_temperature@temperatura:
   488                           	callstack 0
   489                           
   490                           ; 4 bytes @ 0x5D
   491  0000BD                     	ds	4
   492  0000C1                     ??_main:
   493                           
   494                           ; 1 bytes @ 0x61
   495  0000C1                     	ds	2
   496                           
   497                           	psect	cstackCOMRAM
   498  000001                     __pcstackCOMRAM:
   499                           	callstack 0
   500  000001                     ??_Comando_LCD:
   501  000001                     ??_Escreve_C_LCD:
   502  000001                     ?_strlen:
   503                           	callstack 0
   504  000001                     ?___fpclassifyf:
   505                           	callstack 0
   506  000001                     ?_isupper:
   507                           	callstack 0
   508  000001                     ?_isdigit:
   509                           	callstack 0
   510  000001                     ?_strncmp:
   511                           	callstack 0
   512  000001                     ?_isspace:
   513                           	callstack 0
   514  000001                     ?_Ler_ADC:
   515                           	callstack 0
   516  000001                     ?___wmul:
   517                           	callstack 0
   518  000001                     ?___awdiv:
   519                           	callstack 0
   520  000001                     ?___awmod:
   521                           	callstack 0
   522  000001                     ?___fldiv:
   523                           	callstack 0
   524  000001                     ?___flneg:
   525                           	callstack 0
   526  000001                     ?___fltol:
   527                           	callstack 0
   528  000001                     ?___xxtofl:
   529                           	callstack 0
   530  000001                     ___wmul@multiplier:
   531                           	callstack 0
   532  000001                     ___awdiv@dividend:
   533                           	callstack 0
   534  000001                     ___awmod@dividend:
   535                           	callstack 0
   536  000001                     isdigit@c:
   537                           	callstack 0
   538  000001                     isspace@c:
   539                           	callstack 0
   540  000001                     isupper@c:
   541                           	callstack 0
   542  000001                     fputc@c:
   543                           	callstack 0
   544  000001                     strcpy@dest:
   545                           	callstack 0
   546  000001                     strlen@s:
   547                           	callstack 0
   548  000001                     strncmp@_l:
   549                           	callstack 0
   550  000001                     ___fleq@ff1:
   551                           	callstack 0
   552  000001                     ___flneg@f1:
   553                           	callstack 0
   554  000001                     ___fltol@f1:
   555                           	callstack 0
   556  000001                     ___fldiv@b:
   557                           	callstack 0
   558  000001                     ___xxtofl@val:
   559                           	callstack 0
   560  000001                     ___fpclassifyf@x:
   561                           	callstack 0
   562                           
   563                           ; 4 bytes @ 0x0
   564  000001                     	ds	1
   565  000002                     Comando_LCD@comando:
   566                           	callstack 0
   567  000002                     Escreve_C_LCD@caracter:
   568                           	callstack 0
   569                           
   570                           ; 1 bytes @ 0x1
   571  000002                     	ds	1
   572  000003                     ??_isupper:
   573  000003                     ??_isdigit:
   574  000003                     ??_isspace:
   575  000003                     ??_Inicializa_LCD:
   576  000003                     ??_Ler_ADC:
   577  000003                     Posiciona_LCD@coluna:
   578                           	callstack 0
   579  000003                     Escreve_LCD@caracter:
   580                           	callstack 0
   581  000003                     ___wmul@multiplicand:
   582                           	callstack 0
   583  000003                     ___awdiv@divisor:
   584                           	callstack 0
   585  000003                     ___awmod@divisor:
   586                           	callstack 0
   587  000003                     fputc@fp:
   588                           	callstack 0
   589  000003                     strcpy@src:
   590                           	callstack 0
   591  000003                     strlen@a:
   592                           	callstack 0
   593  000003                     strncmp@_r:
   594                           	callstack 0
   595                           
   596                           ; 2 bytes @ 0x2
   597  000003                     	ds	1
   598  000004                     ??_Posiciona_LCD:
   599  000004                     Inicializa_LCD@x:
   600                           	callstack 0
   601                           
   602                           ; 1 bytes @ 0x3
   603  000004                     	ds	1
   604  000005                     ??_fputc:
   605  000005                     ??___fpclassifyf:
   606  000005                     ??_strcpy:
   607  000005                     ??_Escreve_LCD:
   608  000005                     ??___fltol:
   609  000005                     ??___xxtofl:
   610  000005                     ___awdiv@counter:
   611                           	callstack 0
   612  000005                     ___awmod@counter:
   613                           	callstack 0
   614  000005                     Ler_ADC@temp:
   615                           	callstack 0
   616  000005                     ___wmul@product:
   617                           	callstack 0
   618  000005                     strncmp@n:
   619                           	callstack 0
   620  000005                     ___fleq@ff2:
   621                           	callstack 0
   622  000005                     ___fldiv@a:
   623                           	callstack 0
   624                           
   625                           ; 4 bytes @ 0x4
   626  000005                     	ds	1
   627  000006                     Posiciona_LCD@linha:
   628                           	callstack 0
   629  000006                     ___awdiv@sign:
   630                           	callstack 0
   631  000006                     ___awmod@sign:
   632                           	callstack 0
   633                           
   634                           ; 1 bytes @ 0x5
   635  000006                     	ds	1
   636  000007                     ??_strncmp:
   637  000007                     ?_tolower:
   638                           	callstack 0
   639  000007                     Posiciona_LCD@x:
   640                           	callstack 0
   641  000007                     _isspace$1137:
   642                           	callstack 0
   643  000007                     ___awdiv@quotient:
   644                           	callstack 0
   645  000007                     strcpy@s:
   646                           	callstack 0
   647  000007                     tolower@c:
   648                           	callstack 0
   649                           
   650                           ; 2 bytes @ 0x6
   651  000007                     	ds	1
   652  000008                     ?_atoi:
   653                           	callstack 0
   654  000008                     printDisplayLCD@line:
   655                           	callstack 0
   656  000008                     atoi@s:
   657                           	callstack 0
   658  000008                     strncmp@l:
   659                           	callstack 0
   660                           
   661                           ; 2 bytes @ 0x7
   662  000008                     	ds	1
   663  000009                     ??___fldiv:
   664  000009                     ??_tolower:
   665  000009                     ??___fleq:
   666  000009                     ___fltol@sign1:
   667                           	callstack 0
   668  000009                     ___xxtofl@sign:
   669                           	callstack 0
   670  000009                     ___fpclassifyf@e:
   671                           	callstack 0
   672  000009                     strcpy@d:
   673                           	callstack 0
   674                           
   675                           ; 2 bytes @ 0x8
   676  000009                     	ds	1
   677  00000A                     ??_atoi:
   678  00000A                     ___fltol@exp1:
   679                           	callstack 0
   680  00000A                     ___xxtofl@exp:
   681                           	callstack 0
   682  00000A                     printDisplayLCD@col:
   683                           	callstack 0
   684  00000A                     fputs@s:
   685                           	callstack 0
   686  00000A                     strncmp@r:
   687                           	callstack 0
   688                           
   689                           ; 2 bytes @ 0x9
   690  00000A                     	ds	1
   691  00000B                     ___xxtofl@arg:
   692                           	callstack 0
   693  00000B                     ___fpclassifyf@u:
   694                           	callstack 0
   695                           
   696                           ; 4 bytes @ 0xA
   697  00000B                     	ds	1
   698  00000C                     printDisplayLCD@text:
   699                           	callstack 0
   700  00000C                     fputs@fp:
   701                           	callstack 0
   702                           
   703                           ; 2 bytes @ 0xB
   704  00000C                     	ds	1
   705  00000D                     ___fldiv@rem:
   706                           	callstack 0
   707                           
   708                           ; 4 bytes @ 0xC
   709  00000D                     	ds	1
   710  00000E                     ??_printDisplayLCD:
   711  00000E                     fputs@c:
   712                           	callstack 0
   713  00000E                     atoi@neg:
   714                           	callstack 0
   715                           
   716                           ; 2 bytes @ 0xD
   717  00000E                     	ds	1
   718  00000F                     ?___flmul:
   719                           	callstack 0
   720  00000F                     fputs@i:
   721                           	callstack 0
   722  00000F                     ___flmul@b:
   723                           	callstack 0
   724                           
   725                           ; 4 bytes @ 0xE
   726  00000F                     	ds	1
   727  000010                     ??_turnon_coolerandheater:
   728  000010                     atoi@n:
   729                           	callstack 0
   730                           
   731                           ; 2 bytes @ 0xF
   732  000010                     	ds	1
   733  000011                     ?_pad:
   734                           	callstack 0
   735  000011                     ___fldiv@sign:
   736                           	callstack 0
   737  000011                     pad@fp:
   738                           	callstack 0
   739                           
   740                           ; 2 bytes @ 0x10
   741  000011                     	ds	1
   742  000012                     ___fldiv@new_exp:
   743                           	callstack 0
   744                           
   745                           ; 2 bytes @ 0x11
   746  000012                     	ds	1
   747  000013                     pad@buf:
   748                           	callstack 0
   749  000013                     ___flmul@a:
   750                           	callstack 0
   751                           
   752                           ; 4 bytes @ 0x12
   753  000013                     	ds	1
   754  000014                     ___fldiv@grs:
   755                           	callstack 0
   756                           
   757                           ; 4 bytes @ 0x13
   758  000014                     	ds	1
   759  000015                     pad@p:
   760                           	callstack 0
   761                           
   762                           ; 2 bytes @ 0x14
   763  000015                     	ds	2
   764  000017                     ??___flmul:
   765  000017                     ??_pad:
   766                           
   767                           ; 1 bytes @ 0x16
   768  000017                     	ds	1
   769  000018                     ___fldiv@bexp:
   770                           	callstack 0
   771  000018                     pad@i:
   772                           	callstack 0
   773                           
   774                           ; 2 bytes @ 0x17
   775  000018                     	ds	1
   776  000019                     ___fldiv@aexp:
   777                           	callstack 0
   778                           
   779                           ; 1 bytes @ 0x18
   780  000019                     	ds	1
   781  00001A                     ?_floorf:
   782                           	callstack 0
   783  00001A                     pad@w:
   784                           	callstack 0
   785  00001A                     floorf@x:
   786                           	callstack 0
   787                           
   788                           ; 4 bytes @ 0x19
   789  00001A                     	ds	1
   790  00001B                     ___flmul@sign:
   791                           	callstack 0
   792                           
   793                           ; 1 bytes @ 0x1A
   794  00001B                     	ds	1
   795  00001C                     ___flmul@grs:
   796                           	callstack 0
   797                           
   798                           ; 4 bytes @ 0x1B
   799  00001C                     	ds	2
   800  00001E                     ??_floorf:
   801                           
   802                           ; 1 bytes @ 0x1D
   803  00001E                     	ds	2
   804  000020                     ___flmul@aexp:
   805                           	callstack 0
   806                           
   807                           ; 1 bytes @ 0x1F
   808  000020                     	ds	1
   809  000021                     ___flmul@bexp:
   810                           	callstack 0
   811                           
   812                           ; 1 bytes @ 0x20
   813  000021                     	ds	1
   814  000022                     ___flmul@prod:
   815                           	callstack 0
   816                           
   817                           ; 4 bytes @ 0x21
   818  000022                     	ds	2
   819  000024                     floorf@m:
   820                           	callstack 0
   821                           
   822                           ; 4 bytes @ 0x23
   823  000024                     	ds	2
   824  000026                     ___flmul@temp:
   825                           	callstack 0
   826                           
   827                           ; 2 bytes @ 0x25
   828  000026                     	ds	2
   829  000028                     ?___fladd:
   830                           	callstack 0
   831  000028                     floorf@e:
   832                           	callstack 0
   833  000028                     ___flge@ff1:
   834                           	callstack 0
   835  000028                     ___fladd@b:
   836                           	callstack 0
   837                           
   838                           ; 4 bytes @ 0x27
   839  000028                     	ds	2
   840  00002A                     floorf@u:
   841                           	callstack 0
   842                           
   843                           ; 4 bytes @ 0x29
   844  00002A                     	ds	2
   845  00002C                     ___flge@ff2:
   846                           	callstack 0
   847  00002C                     ___fladd@a:
   848                           	callstack 0
   849                           
   850                           ; 4 bytes @ 0x2B
   851  00002C                     	ds	4
   852  000030                     ??___fladd:
   853  000030                     ??___flge:
   854                           
   855                           ; 1 bytes @ 0x2F
   856  000030                     	ds	4
   857  000034                     ___fladd@signs:
   858                           	callstack 0
   859                           
   860                           ; 1 bytes @ 0x33
   861  000034                     	ds	1
   862  000035                     ___fladd@aexp:
   863                           	callstack 0
   864                           
   865                           ; 1 bytes @ 0x34
   866  000035                     	ds	1
   867  000036                     ___fladd@bexp:
   868                           	callstack 0
   869                           
   870                           ; 1 bytes @ 0x35
   871  000036                     	ds	1
   872  000037                     ___fladd@grs:
   873                           	callstack 0
   874                           
   875                           ; 1 bytes @ 0x36
   876  000037                     	ds	1
   877  000038                     ?___flsub:
   878                           	callstack 0
   879  000038                     ___flsub@b:
   880                           	callstack 0
   881                           
   882                           ; 4 bytes @ 0x37
   883  000038                     	ds	4
   884  00003C                     ___flsub@a:
   885                           	callstack 0
   886                           
   887                           ; 4 bytes @ 0x3B
   888  00003C                     	ds	4
   889  000040                     ?_efgtoa:
   890                           	callstack 0
   891  000040                     efgtoa@fp:
   892                           	callstack 0
   893                           
   894                           ; 2 bytes @ 0x3F
   895  000040                     	ds	2
   896  000042                     efgtoa@f:
   897                           	callstack 0
   898                           
   899                           ; 4 bytes @ 0x41
   900  000042                     	ds	4
   901  000046                     efgtoa@c:
   902                           	callstack 0
   903                           
   904                           ; 1 bytes @ 0x45
   905  000046                     	ds	1
   906  000047                     ??_efgtoa:
   907                           
   908                           ; 1 bytes @ 0x46
   909  000047                     	ds	5
   910  00004C                     ?_vfpfcnvrt:
   911                           	callstack 0
   912  00004C                     vfpfcnvrt@fp:
   913                           	callstack 0
   914                           
   915                           ; 2 bytes @ 0x4B
   916  00004C                     	ds	2
   917  00004E                     vfpfcnvrt@fmt:
   918                           	callstack 0
   919                           
   920                           ; 2 bytes @ 0x4D
   921  00004E                     	ds	2
   922  000050                     vfpfcnvrt@ap:
   923                           	callstack 0
   924                           
   925                           ; 2 bytes @ 0x4F
   926  000050                     	ds	2
   927  000052                     ??_vfpfcnvrt:
   928                           
   929                           ; 1 bytes @ 0x51
   930  000052                     	ds	4
   931  000056                     vfpfcnvrt@f:
   932                           	callstack 0
   933                           
   934                           ; 4 bytes @ 0x55
   935  000056                     	ds	4
   936  00005A                     vfpfcnvrt@ct:
   937                           	callstack 0
   938                           
   939                           ; 3 bytes @ 0x59
   940  00005A                     	ds	3
   941  00005D                     vfpfcnvrt@c:
   942                           	callstack 0
   943                           
   944                           ; 1 bytes @ 0x5C
   945  00005D                     	ds	1
   946  00005E                     vfprintf@cfmt:
   947                           	callstack 0
   948                           
   949                           ; 2 bytes @ 0x5D
   950  00005E                     	ds	2
   951  000060                     
   952                           ; 1 bytes @ 0x5F
   953 ;;
   954 ;;Main: autosize = 0, tempsize = 2, incstack = 0, save=0
   955 ;;
   956 ;; *************** function _main *****************
   957 ;; Defined at:
   958 ;;		line 17 in file "tanque.c"
   959 ;; Parameters:    Size  Location     Type
   960 ;;		None
   961 ;; Auto vars:     Size  Location     Type
   962 ;;		None
   963 ;; Return value:  Size  Location     Type
   964 ;;                  1    wreg      void 
   965 ;; Registers used:
   966 ;;		wreg, fsr1l, fsr1h, fsr2l, fsr2h, status,2, status,0, tblptrl, tblptrh, tblptru, prodl, prodh, cstack
   967 ;; Tracked objects:
   968 ;;		On entry : 0/0
   969 ;;		On exit  : 0/0
   970 ;;		Unchanged: 0/0
   971 ;; Data sizes:     COMRAM   BANK0   BANK1   BANK2   BANK3   BANK4   BANK5   BANK6   BANK7
   972 ;;      Params:         0       0       0       0       0       0       0       0       0
   973 ;;      Locals:         0       0       0       0       0       0       0       0       0
   974 ;;      Temps:          0       2       0       0       0       0       0       0       0
   975 ;;      Totals:         0       2       0       0       0       0       0       0       0
   976 ;;Total ram usage:        2 bytes
   977 ;; Hardware stack levels required when called: 9
   978 ;; This function calls:
   979 ;;		_Comando_LCD
   980 ;;		_Inicializa_LCD
   981 ;;		_potentiometer_temperature
   982 ;;		_printDisplayLCD
   983 ;;		_turnoff_coolerandheater
   984 ;;		_turnon_coolerandheater
   985 ;; This function is called by:
   986 ;;		Startup code after reset
   987 ;; This function uses a non-reentrant model
   988 ;;
   989                           
   990                           	psect	text0
   991  002EB8                     __ptext0:
   992                           	callstack 0
   993  002EB8                     _main:
   994                           	callstack 22
   995  002EB8                     
   996                           ;tanque.c: 21:     TRISB = 0b00011000;
   997  002EB8  0E18               	movlw	24
   998  002EBA  6E93               	movwf	147,c	;volatile
   999                           
  1000                           ;tanque.c: 22:     PORTB = 0b00011000;
  1001  002EBC  0E18               	movlw	24
  1002  002EBE  6E81               	movwf	129,c	;volatile
  1003                           
  1004                           ;tanque.c: 31:     ADCON1 = 0x06;
  1005  002EC0  0E06               	movlw	6
  1006  002EC2  6EC1               	movwf	193,c	;volatile
  1007                           
  1008                           ;tanque.c: 33:     TRISD = 0;
  1009  002EC4  0E00               	movlw	0
  1010  002EC6  6E95               	movwf	149,c	;volatile
  1011                           
  1012                           ;tanque.c: 34:     TRISE = 0;
  1013  002EC8  0E00               	movlw	0
  1014  002ECA  6E96               	movwf	150,c	;volatile
  1015                           
  1016                           ;tanque.c: 35:     PORTD = 0x00;
  1017  002ECC  0E00               	movlw	0
  1018  002ECE  6E83               	movwf	131,c	;volatile
  1019  002ED0                     
  1020                           ;tanque.c: 40:     TRISCbits.RC0=0;
  1021  002ED0  9094               	bcf	148,0,c	;volatile
  1022  002ED2                     
  1023                           ;tanque.c: 41:     TRISEbits.RE0=0;
  1024  002ED2  9096               	bcf	150,0,c	;volatile
  1025  002ED4                     
  1026                           ;tanque.c: 44:     TRISCbits.RC2=0;
  1027  002ED4  9494               	bcf	148,2,c	;volatile
  1028  002ED6                     
  1029                           ;tanque.c: 45:     PORTCbits.RC2=0;
  1030  002ED6  9482               	bcf	130,2,c	;volatile
  1031                           
  1032                           ;tanque.c: 46:     TRISA=0;
  1033  002ED8  0E00               	movlw	0
  1034  002EDA  6E92               	movwf	146,c	;volatile
  1035                           
  1036                           ;tanque.c: 47:     TRISD=0;
  1037  002EDC  0E00               	movlw	0
  1038  002EDE  6E95               	movwf	149,c	;volatile
  1039  002EE0                     
  1040                           ;tanque.c: 50:     PORTEbits.RE0=0;
  1041  002EE0  9084               	bcf	132,0,c	;volatile
  1042  002EE2                     
  1043                           ;tanque.c: 51:     PORTCbits.RC0=1;
  1044  002EE2  8082               	bsf	130,0,c	;volatile
  1045  002EE4                     
  1046                           ;tanque.c: 57:     Inicializa_LCD();
  1047  002EE4  ECF4  F01A         	call	_Inicializa_LCD	;wreg free
  1048  002EE8                     l4043:
  1049                           
  1050                           ;tanque.c: 60:         if (PORTBbits.RB4==0){
  1051  002EE8  B881               	btfsc	129,4,c	;volatile
  1052  002EEA  EF79  F017         	goto	u4631
  1053  002EEE  EF7B  F017         	goto	u4630
  1054  002EF2                     u4631:
  1055  002EF2  EFAF  F017         	goto	l105
  1056  002EF6                     u4630:
  1057  002EF6                     
  1058                           ;tanque.c: 61:             turnon_coolerandheater();
  1059  002EF6  EC92  F01A         	call	_turnon_coolerandheater	;wreg free
  1060  002EFA                     
  1061                           ;tanque.c: 62:             potentiometer_temperature();
  1062  002EFA  EC71  F014         	call	_potentiometer_temperature	;wreg free
  1063  002EFE                     
  1064                           ;tanque.c: 63:             turnoff_coolerandheater();
  1065  002EFE  EC1F  F01D         	call	_turnoff_coolerandheater	;wreg free
  1066  002F02                     
  1067                           ;tanque.c: 64:             _delay((unsigned long)((200)*(4000000/4000.0)));
  1068  002F02  0E02               	movlw	2
  1069  002F04  0100               	movlb	0	; () banked
  1070  002F06  6FC2               	movwf	(??_main+1)& (0+255),b
  1071  002F08  0E04               	movlw	4
  1072  002F0A  6FC1               	movwf	??_main& (0+255),b
  1073  002F0C  0EBA               	movlw	186
  1074  002F0E                     u4657:
  1075  002F0E  2EE8               	decfsz	wreg,f,c
  1076  002F10  D7FE               	bra	u4657
  1077  002F12  2FC1               	decfsz	??_main& (0+255),f,b
  1078  002F14  D7FC               	bra	u4657
  1079  002F16  2FC2               	decfsz	(??_main+1)& (0+255),f,b
  1080  002F18  D7FA               	bra	u4657
  1081  002F1A  F000               	nop	
  1082  002F1C                     
  1083                           ;tanque.c: 65:             Comando_LCD(01);
  1084  002F1C  0E01               	movlw	1
  1085  002F1E  ECE9  F01C         	call	_Comando_LCD
  1086  002F22                     
  1087                           ;tanque.c: 66:             printDisplayLCD(1,1, "Esvaziando!");
  1088  002F22  0E00               	movlw	0
  1089  002F24  6E09               	movwf	(printDisplayLCD@line+1)^0,c
  1090  002F26  0E01               	movlw	1
  1091  002F28  6E08               	movwf	printDisplayLCD@line^0,c
  1092  002F2A  0E00               	movlw	0
  1093  002F2C  6E0B               	movwf	(printDisplayLCD@col+1)^0,c
  1094  002F2E  0E01               	movlw	1
  1095  002F30  6E0A               	movwf	printDisplayLCD@col^0,c
  1096  002F32  0E1B               	movlw	low STR_6
  1097  002F34  6E0C               	movwf	printDisplayLCD@text^0,c
  1098  002F36  0E08               	movlw	high STR_6
  1099  002F38  6E0D               	movwf	(printDisplayLCD@text+1)^0,c
  1100  002F3A  ECBB  F01C         	call	_printDisplayLCD	;wreg free
  1101  002F3E                     
  1102                           ;tanque.c: 67:             PORTEbits.RE0=1;
  1103  002F3E  8084               	bsf	132,0,c	;volatile
  1104  002F40                     
  1105                           ;tanque.c: 68:             _delay((unsigned long)((600)*(4000000/4000.0)));
  1106  002F40  0E04               	movlw	4
  1107  002F42  0100               	movlb	0	; () banked
  1108  002F44  6FC2               	movwf	(??_main+1)& (0+255),b
  1109  002F46  0E0C               	movlw	12
  1110  002F48  6FC1               	movwf	??_main& (0+255),b
  1111  002F4A  0E33               	movlw	51
  1112  002F4C                     u4667:
  1113  002F4C  2EE8               	decfsz	wreg,f,c
  1114  002F4E  D7FE               	bra	u4667
  1115  002F50  2FC1               	decfsz	??_main& (0+255),f,b
  1116  002F52  D7FC               	bra	u4667
  1117  002F54  2FC2               	decfsz	(??_main+1)& (0+255),f,b
  1118  002F56  D7FA               	bra	u4667
  1119  002F58  D000               	nop2	
  1120                           
  1121                           ;tanque.c: 71:         }
  1122  002F5A  EF74  F017         	goto	l4043
  1123  002F5E                     l105:
  1124  002F5E  A681               	btfss	129,3,c	;volatile
  1125  002F60  EFB4  F017         	goto	u4641
  1126  002F64  EFB6  F017         	goto	u4640
  1127  002F68                     u4641:
  1128  002F68  EF74  F017         	goto	l4043
  1129  002F6C                     u4640:
  1130  002F6C                     
  1131                           ;tanque.c: 74:             PORTEbits.RE0=0;
  1132  002F6C  9084               	bcf	132,0,c	;volatile
  1133  002F6E                     
  1134                           ;tanque.c: 75:             Comando_LCD(01);
  1135  002F6E  0E01               	movlw	1
  1136  002F70  ECE9  F01C         	call	_Comando_LCD
  1137  002F74                     
  1138                           ;tanque.c: 76:             printDisplayLCD(1,1, "Enchendo!");
  1139  002F74  0E00               	movlw	0
  1140  002F76  6E09               	movwf	(printDisplayLCD@line+1)^0,c
  1141  002F78  0E01               	movlw	1
  1142  002F7A  6E08               	movwf	printDisplayLCD@line^0,c
  1143  002F7C  0E00               	movlw	0
  1144  002F7E  6E0B               	movwf	(printDisplayLCD@col+1)^0,c
  1145  002F80  0E01               	movlw	1
  1146  002F82  6E0A               	movwf	printDisplayLCD@col^0,c
  1147  002F84  0E32               	movlw	low STR_7
  1148  002F86  6E0C               	movwf	printDisplayLCD@text^0,c
  1149  002F88  0E08               	movlw	high STR_7
  1150  002F8A  6E0D               	movwf	(printDisplayLCD@text+1)^0,c
  1151  002F8C  ECBB  F01C         	call	_printDisplayLCD	;wreg free
  1152  002F90                     
  1153                           ;tanque.c: 77:             PORTCbits.RC0=1;
  1154  002F90  8082               	bsf	130,0,c	;volatile
  1155  002F92                     
  1156                           ;tanque.c: 78:             _delay((unsigned long)((100)*(4000000/4000.0)));
  1157  002F92  0E82               	movlw	130
  1158  002F94  0100               	movlb	0	; () banked
  1159  002F96  6FC1               	movwf	??_main& (0+255),b
  1160  002F98  0EDD               	movlw	221
  1161  002F9A                     u4677:
  1162  002F9A  2EE8               	decfsz	wreg,f,c
  1163  002F9C  D7FE               	bra	u4677
  1164  002F9E  2FC1               	decfsz	??_main& (0+255),f,b
  1165  002FA0  D7FC               	bra	u4677
  1166  002FA2  D000               	nop2	
  1167  002FA4  EF74  F017         	goto	l4043
  1168  002FA8  EF00  F000         	goto	start
  1169  002FAC                     __end_of_main:
  1170                           	callstack 0
  1171                           
  1172 ;; *************** function _turnon_coolerandheater *****************
  1173 ;; Defined at:
  1174 ;;		line 16 in file "./rotina.h"
  1175 ;; Parameters:    Size  Location     Type
  1176 ;;		None
  1177 ;; Auto vars:     Size  Location     Type
  1178 ;;		None
  1179 ;; Return value:  Size  Location     Type
  1180 ;;                  1    wreg      void 
  1181 ;; Registers used:
  1182 ;;		wreg, fsr1l, fsr1h, status,2, status,0, tblptrl, tblptrh, tblptru, cstack
  1183 ;; Tracked objects:
  1184 ;;		On entry : 0/0
  1185 ;;		On exit  : 0/0
  1186 ;;		Unchanged: 0/0
  1187 ;; Data sizes:     COMRAM   BANK0   BANK1   BANK2   BANK3   BANK4   BANK5   BANK6   BANK7
  1188 ;;      Params:         0       0       0       0       0       0       0       0       0
  1189 ;;      Locals:         0       0       0       0       0       0       0       0       0
  1190 ;;      Temps:          2       0       0       0       0       0       0       0       0
  1191 ;;      Totals:         2       0       0       0       0       0       0       0       0
  1192 ;;Total ram usage:        2 bytes
  1193 ;; Hardware stack levels used: 1
  1194 ;; Hardware stack levels required when called: 3
  1195 ;; This function calls:
  1196 ;;		_Comando_LCD
  1197 ;;		_printDisplayLCD
  1198 ;; This function is called by:
  1199 ;;		_main
  1200 ;; This function uses a non-reentrant model
  1201 ;;
  1202                           
  1203                           	psect	text1
  1204  003524                     __ptext1:
  1205                           	callstack 0
  1206  003524                     _turnon_coolerandheater:
  1207                           	callstack 27
  1208  003524                     
  1209                           ;./rotina.h: 17:     PORTBbits.RB7 = 1;
  1210  003524  8E81               	bsf	129,7,c	;volatile
  1211  003526                     
  1212                           ;./rotina.h: 18:     PORTC=0x00;
  1213  003526  0E00               	movlw	0
  1214  003528  6E82               	movwf	130,c	;volatile
  1215                           
  1216                           ;./rotina.h: 19:     PORTE=0b00000000;
  1217  00352A  0E00               	movlw	0
  1218  00352C  6E84               	movwf	132,c	;volatile
  1219  00352E                     
  1220                           ;./rotina.h: 20:     PORTCbits.RC2= 1;
  1221  00352E  8482               	bsf	130,2,c	;volatile
  1222  003530                     
  1223                           ;./rotina.h: 21:     Comando_LCD(01);
  1224  003530  0E01               	movlw	1
  1225  003532  ECE9  F01C         	call	_Comando_LCD
  1226  003536                     
  1227                           ;./rotina.h: 22:     printDisplayLCD(1,1, "Misturando");
  1228  003536  0E00               	movlw	0
  1229  003538  6E09               	movwf	(printDisplayLCD@line+1)^0,c
  1230  00353A  0E01               	movlw	1
  1231  00353C  6E08               	movwf	printDisplayLCD@line^0,c
  1232  00353E  0E00               	movlw	0
  1233  003540  6E0B               	movwf	(printDisplayLCD@col+1)^0,c
  1234  003542  0E01               	movlw	1
  1235  003544  6E0A               	movwf	printDisplayLCD@col^0,c
  1236  003546  0E27               	movlw	low STR_1
  1237  003548  6E0C               	movwf	printDisplayLCD@text^0,c
  1238  00354A  0E08               	movlw	high STR_1
  1239  00354C  6E0D               	movwf	(printDisplayLCD@text+1)^0,c
  1240  00354E  ECBB  F01C         	call	_printDisplayLCD	;wreg free
  1241  003552                     
  1242                           ;./rotina.h: 23:     printDisplayLCD(2,1, "e Aquecendo!");
  1243  003552  0E00               	movlw	0
  1244  003554  6E09               	movwf	(printDisplayLCD@line+1)^0,c
  1245  003556  0E02               	movlw	2
  1246  003558  6E08               	movwf	printDisplayLCD@line^0,c
  1247  00355A  0E00               	movlw	0
  1248  00355C  6E0B               	movwf	(printDisplayLCD@col+1)^0,c
  1249  00355E  0E01               	movlw	1
  1250  003560  6E0A               	movwf	printDisplayLCD@col^0,c
  1251  003562  0E01               	movlw	low STR_2
  1252  003564  6E0C               	movwf	printDisplayLCD@text^0,c
  1253  003566  0E08               	movlw	high STR_2
  1254  003568  6E0D               	movwf	(printDisplayLCD@text+1)^0,c
  1255  00356A  ECBB  F01C         	call	_printDisplayLCD	;wreg free
  1256  00356E                     
  1257                           ;./rotina.h: 24:      _delay((unsigned long)((300)*(8000000/4000.0)));
  1258  00356E  0E04               	movlw	4
  1259  003570  6E11               	movwf	(??_turnon_coolerandheater+1)^0,c
  1260  003572  0E0C               	movlw	12
  1261  003574  6E10               	movwf	??_turnon_coolerandheater^0,c
  1262  003576  0E34               	movlw	52
  1263  003578                     u4687:
  1264  003578  2EE8               	decfsz	wreg,f,c
  1265  00357A  D7FE               	bra	u4687
  1266  00357C  2E10               	decfsz	??_turnon_coolerandheater^0,f,c
  1267  00357E  D7FC               	bra	u4687
  1268  003580  2E11               	decfsz	(??_turnon_coolerandheater+1)^0,f,c
  1269  003582  D7FA               	bra	u4687
  1270  003584  0012               	return		;funcret
  1271  003586                     __end_of_turnon_coolerandheater:
  1272                           	callstack 0
  1273                           
  1274 ;; *************** function _turnoff_coolerandheater *****************
  1275 ;; Defined at:
  1276 ;;		line 27 in file "./rotina.h"
  1277 ;; Parameters:    Size  Location     Type
  1278 ;;		None
  1279 ;; Auto vars:     Size  Location     Type
  1280 ;;		None
  1281 ;; Return value:  Size  Location     Type
  1282 ;;                  1    wreg      void 
  1283 ;; Registers used:
  1284 ;;		None
  1285 ;; Tracked objects:
  1286 ;;		On entry : 0/0
  1287 ;;		On exit  : 0/0
  1288 ;;		Unchanged: 0/0
  1289 ;; Data sizes:     COMRAM   BANK0   BANK1   BANK2   BANK3   BANK4   BANK5   BANK6   BANK7
  1290 ;;      Params:         0       0       0       0       0       0       0       0       0
  1291 ;;      Locals:         0       0       0       0       0       0       0       0       0
  1292 ;;      Temps:          0       0       0       0       0       0       0       0       0
  1293 ;;      Totals:         0       0       0       0       0       0       0       0       0
  1294 ;;Total ram usage:        0 bytes
  1295 ;; Hardware stack levels used: 1
  1296 ;; This function calls:
  1297 ;;		Nothing
  1298 ;; This function is called by:
  1299 ;;		_main
  1300 ;; This function uses a non-reentrant model
  1301 ;;
  1302                           
  1303                           	psect	text2
  1304  003A3E                     __ptext2:
  1305                           	callstack 0
  1306  003A3E                     _turnoff_coolerandheater:
  1307                           	callstack 30
  1308  003A3E                     
  1309                           ;./rotina.h: 28:     PORTCbits.RC2=0;
  1310  003A3E  9482               	bcf	130,2,c	;volatile
  1311                           
  1312                           ;./rotina.h: 29:     PORTBbits.RB7 = 0;
  1313  003A40  9E81               	bcf	129,7,c	;volatile
  1314  003A42  0012               	return		;funcret
  1315  003A44                     __end_of_turnoff_coolerandheater:
  1316                           	callstack 0
  1317                           
  1318 ;; *************** function _potentiometer_temperature *****************
  1319 ;; Defined at:
  1320 ;;		line 32 in file "./rotina.h"
  1321 ;; Parameters:    Size  Location     Type
  1322 ;;		None
  1323 ;; Auto vars:     Size  Location     Type
  1324 ;;  temperatura_   10   77[BANK0 ] unsigned char [10]
  1325 ;;  temperatura     4   93[BANK0 ] float 
  1326 ;;  voltagem        4   87[BANK0 ] float 
  1327 ;;  digital         2   91[BANK0 ] unsigned int 
  1328 ;; Return value:  Size  Location     Type
  1329 ;;                  1    wreg      void 
  1330 ;; Registers used:
  1331 ;;		wreg, fsr1l, fsr1h, fsr2l, fsr2h, status,2, status,0, tblptrl, tblptrh, tblptru, prodl, prodh, cstack
  1332 ;; Tracked objects:
  1333 ;;		On entry : 0/0
  1334 ;;		On exit  : 0/0
  1335 ;;		Unchanged: 0/0
  1336 ;; Data sizes:     COMRAM   BANK0   BANK1   BANK2   BANK3   BANK4   BANK5   BANK6   BANK7
  1337 ;;      Params:         0       0       0       0       0       0       0       0       0
  1338 ;;      Locals:         0      20       0       0       0       0       0       0       0
  1339 ;;      Temps:          0       0       0       0       0       0       0       0       0
  1340 ;;      Totals:         0      20       0       0       0       0       0       0       0
  1341 ;;Total ram usage:       20 bytes
  1342 ;; Hardware stack levels used: 1
  1343 ;; Hardware stack levels required when called: 8
  1344 ;; This function calls:
  1345 ;;		_Comando_LCD
  1346 ;;		_Inicializa_ADC
  1347 ;;		_Ler_ADC
  1348 ;;		___fladd
  1349 ;;		___fleq
  1350 ;;		___flmul
  1351 ;;		___xxtofl
  1352 ;;		_printDisplayLCD
  1353 ;;		_sprintf
  1354 ;; This function is called by:
  1355 ;;		_main
  1356 ;; This function uses a non-reentrant model
  1357 ;;
  1358                           
  1359                           	psect	text3
  1360  0028E2                     __ptext3:
  1361                           	callstack 0
  1362  0028E2                     _potentiometer_temperature:
  1363                           	callstack 22
  1364  0028E2                     
  1365                           ;./rotina.h: 34:     float voltagem;;./rotina.h: 35:     float temperatura = 20;
  1366  0028E2  0E00               	movlw	0
  1367  0028E4  0100               	movlb	0	; () banked
  1368  0028E6  6FBD               	movwf	potentiometer_temperature@temperatura& (0+255),b
  1369  0028E8  0E00               	movlw	0
  1370  0028EA  6FBE               	movwf	(potentiometer_temperature@temperatura+1)& (0+255),b
  1371  0028EC  0EA0               	movlw	160
  1372  0028EE  6FBF               	movwf	(potentiometer_temperature@temperatura+2)& (0+255),b
  1373  0028F0  0E41               	movlw	65
  1374  0028F2  6FC0               	movwf	(potentiometer_temperature@temperatura+3)& (0+255),b
  1375  0028F4                     
  1376                           ; BSR set to: 0
  1377                           ;./rotina.h: 36:     unsigned int digital;;./rotina.h: 37:     char temperatura_texto[10
      +                          ];;./rotina.h: 38:     Comando_LCD (01);
  1378  0028F4  0E01               	movlw	1
  1379  0028F6  ECE9  F01C         	call	_Comando_LCD
  1380  0028FA                     
  1381                           ;./rotina.h: 39:     Inicializa_ADC();
  1382  0028FA  EC12  F01D         	call	_Inicializa_ADC	;wreg free
  1383  0028FE                     
  1384                           ;./rotina.h: 40:     printDisplayLCD(1,1,"Temperatura:");
  1385  0028FE  0E00               	movlw	0
  1386  002900  6E09               	movwf	(printDisplayLCD@line+1)^0,c
  1387  002902  0E01               	movlw	1
  1388  002904  6E08               	movwf	printDisplayLCD@line^0,c
  1389  002906  0E00               	movlw	0
  1390  002908  6E0B               	movwf	(printDisplayLCD@col+1)^0,c
  1391  00290A  0E01               	movlw	1
  1392  00290C  6E0A               	movwf	printDisplayLCD@col^0,c
  1393  00290E  0E0E               	movlw	low STR_3
  1394  002910  6E0C               	movwf	printDisplayLCD@text^0,c
  1395  002912  0E08               	movlw	high STR_3
  1396  002914  6E0D               	movwf	(printDisplayLCD@text+1)^0,c
  1397  002916  ECBB  F01C         	call	_printDisplayLCD	;wreg free
  1398  00291A                     
  1399                           ;./rotina.h: 41:     printDisplayLCD(2,8,"Celsius");
  1400  00291A  0E00               	movlw	0
  1401  00291C  6E09               	movwf	(printDisplayLCD@line+1)^0,c
  1402  00291E  0E02               	movlw	2
  1403  002920  6E08               	movwf	printDisplayLCD@line^0,c
  1404  002922  0E00               	movlw	0
  1405  002924  6E0B               	movwf	(printDisplayLCD@col+1)^0,c
  1406  002926  0E08               	movlw	8
  1407  002928  6E0A               	movwf	printDisplayLCD@col^0,c
  1408  00292A  0E3C               	movlw	low STR_4
  1409  00292C  6E0C               	movwf	printDisplayLCD@text^0,c
  1410  00292E  0E08               	movlw	high STR_4
  1411  002930  6E0D               	movwf	(printDisplayLCD@text+1)^0,c
  1412  002932  ECBB  F01C         	call	_printDisplayLCD	;wreg free
  1413                           
  1414                           ;./rotina.h: 44:     while(temperatura!=80){
  1415  002936  EF13  F015         	goto	l4025
  1416  00293A                     l4015:
  1417                           
  1418                           ;./rotina.h: 45:         digital = Ler_ADC();
  1419  00293A  ECD3  F01C         	call	_Ler_ADC	;wreg free
  1420  00293E  C001  F0BB         	movff	?_Ler_ADC,potentiometer_temperature@digital
  1421  002942  C002  F0BC         	movff	?_Ler_ADC+1,potentiometer_temperature@digital+1
  1422  002946                     
  1423                           ;./rotina.h: 46:         voltagem = digital*((float)5.00/(float)1023);
  1424  002946  C0BB  F001         	movff	potentiometer_temperature@digital,___xxtofl@val
  1425  00294A  C0BC  F002         	movff	potentiometer_temperature@digital+1,___xxtofl@val+1
  1426  00294E  6A03               	clrf	(___xxtofl@val+2)^0,c
  1427  002950  6A04               	clrf	(___xxtofl@val+3)^0,c
  1428  002952  0E00               	movlw	0
  1429  002954  EC97  F013         	call	___xxtofl
  1430  002958  C001  F00F         	movff	?___xxtofl,___flmul@b
  1431  00295C  C002  F010         	movff	?___xxtofl+1,___flmul@b+1
  1432  002960  C003  F011         	movff	?___xxtofl+2,___flmul@b+2
  1433  002964  C004  F012         	movff	?___xxtofl+3,___flmul@b+3
  1434  002968  0E0A               	movlw	10
  1435  00296A  6E13               	movwf	___flmul@a^0,c
  1436  00296C  0E28               	movlw	40
  1437  00296E  6E14               	movwf	(___flmul@a+1)^0,c
  1438  002970  0EA0               	movlw	160
  1439  002972  6E15               	movwf	(___flmul@a+2)^0,c
  1440  002974  0E3B               	movlw	59
  1441  002976  6E16               	movwf	(___flmul@a+3)^0,c
  1442  002978  ECAC  F00E         	call	___flmul	;wreg free
  1443  00297C  C00F  F0B7         	movff	?___flmul,potentiometer_temperature@voltagem
  1444  002980  C010  F0B8         	movff	?___flmul+1,potentiometer_temperature@voltagem+1
  1445  002984  C011  F0B9         	movff	?___flmul+2,potentiometer_temperature@voltagem+2
  1446  002988  C012  F0BA         	movff	?___flmul+3,potentiometer_temperature@voltagem+3
  1447  00298C                     
  1448                           ;./rotina.h: 48:         temperatura = 12*voltagem+20;
  1449  00298C  0E00               	movlw	0
  1450  00298E  6E13               	movwf	___flmul@a^0,c
  1451  002990  0E00               	movlw	0
  1452  002992  6E14               	movwf	(___flmul@a+1)^0,c
  1453  002994  0E40               	movlw	64
  1454  002996  6E15               	movwf	(___flmul@a+2)^0,c
  1455  002998  0E41               	movlw	65
  1456  00299A  6E16               	movwf	(___flmul@a+3)^0,c
  1457  00299C  C0B7  F00F         	movff	potentiometer_temperature@voltagem,___flmul@b
  1458  0029A0  C0B8  F010         	movff	potentiometer_temperature@voltagem+1,___flmul@b+1
  1459  0029A4  C0B9  F011         	movff	potentiometer_temperature@voltagem+2,___flmul@b+2
  1460  0029A8  C0BA  F012         	movff	potentiometer_temperature@voltagem+3,___flmul@b+3
  1461  0029AC  ECAC  F00E         	call	___flmul	;wreg free
  1462  0029B0  C00F  F028         	movff	?___flmul,___fladd@b
  1463  0029B4  C010  F029         	movff	?___flmul+1,___fladd@b+1
  1464  0029B8  C011  F02A         	movff	?___flmul+2,___fladd@b+2
  1465  0029BC  C012  F02B         	movff	?___flmul+3,___fladd@b+3
  1466  0029C0  0E00               	movlw	0
  1467  0029C2  6E2C               	movwf	___fladd@a^0,c
  1468  0029C4  0E00               	movlw	0
  1469  0029C6  6E2D               	movwf	(___fladd@a+1)^0,c
  1470  0029C8  0EA0               	movlw	160
  1471  0029CA  6E2E               	movwf	(___fladd@a+2)^0,c
  1472  0029CC  0E41               	movlw	65
  1473  0029CE  6E2F               	movwf	(___fladd@a+3)^0,c
  1474  0029D0  EC36  F00A         	call	___fladd	;wreg free
  1475  0029D4  C028  F0BD         	movff	?___fladd,potentiometer_temperature@temperatura
  1476  0029D8  C029  F0BE         	movff	?___fladd+1,potentiometer_temperature@temperatura+1
  1477  0029DC  C02A  F0BF         	movff	?___fladd+2,potentiometer_temperature@temperatura+2
  1478  0029E0  C02B  F0C0         	movff	?___fladd+3,potentiometer_temperature@temperatura+3
  1479  0029E4                     
  1480                           ;./rotina.h: 49:         sprintf(temperatura_texto,"%.2f",temperatura);
  1481  0029E4  0EAD               	movlw	low potentiometer_temperature@temperatura_texto
  1482  0029E6  0100               	movlb	0	; () banked
  1483  0029E8  6F98               	movwf	sprintf@s& (0+255),b
  1484  0029EA  0E00               	movlw	high potentiometer_temperature@temperatura_texto
  1485  0029EC  6F99               	movwf	(sprintf@s+1)& (0+255),b
  1486  0029EE  0E44               	movlw	low STR_5
  1487  0029F0  6F9A               	movwf	sprintf@fmt& (0+255),b
  1488  0029F2  0E08               	movlw	high STR_5
  1489  0029F4  6F9B               	movwf	(sprintf@fmt+1)& (0+255),b
  1490  0029F6  C0BD  F09C         	movff	potentiometer_temperature@temperatura,?_sprintf+4
  1491  0029FA  C0BE  F09D         	movff	potentiometer_temperature@temperatura+1,?_sprintf+5
  1492  0029FE  C0BF  F09E         	movff	potentiometer_temperature@temperatura+2,?_sprintf+6
  1493  002A02  C0C0  F09F         	movff	potentiometer_temperature@temperatura+3,?_sprintf+7
  1494  002A06  EC52  F01B         	call	_sprintf	;wreg free
  1495  002A0A                     
  1496                           ;./rotina.h: 51:         printDisplayLCD(2,1, temperatura_texto);
  1497  002A0A  0E00               	movlw	0
  1498  002A0C  6E09               	movwf	(printDisplayLCD@line+1)^0,c
  1499  002A0E  0E02               	movlw	2
  1500  002A10  6E08               	movwf	printDisplayLCD@line^0,c
  1501  002A12  0E00               	movlw	0
  1502  002A14  6E0B               	movwf	(printDisplayLCD@col+1)^0,c
  1503  002A16  0E01               	movlw	1
  1504  002A18  6E0A               	movwf	printDisplayLCD@col^0,c
  1505  002A1A  0EAD               	movlw	low potentiometer_temperature@temperatura_texto
  1506  002A1C  6E0C               	movwf	printDisplayLCD@text^0,c
  1507  002A1E  0E00               	movlw	high potentiometer_temperature@temperatura_texto
  1508  002A20  6E0D               	movwf	(printDisplayLCD@text+1)^0,c
  1509  002A22  ECBB  F01C         	call	_printDisplayLCD	;wreg free
  1510  002A26                     l4025:
  1511                           
  1512                           ;./rotina.h: 44:     while(temperatura!=80){
  1513  002A26  C0BD  F001         	movff	potentiometer_temperature@temperatura,___fleq@ff1
  1514  002A2A  C0BE  F002         	movff	potentiometer_temperature@temperatura+1,___fleq@ff1+1
  1515  002A2E  C0BF  F003         	movff	potentiometer_temperature@temperatura+2,___fleq@ff1+2
  1516  002A32  C0C0  F004         	movff	potentiometer_temperature@temperatura+3,___fleq@ff1+3
  1517  002A36  0E00               	movlw	0
  1518  002A38  6E05               	movwf	___fleq@ff2^0,c
  1519  002A3A  0E00               	movlw	0
  1520  002A3C  6E06               	movwf	(___fleq@ff2+1)^0,c
  1521  002A3E  0EA0               	movlw	160
  1522  002A40  6E07               	movwf	(___fleq@ff2+2)^0,c
  1523  002A42  0E42               	movlw	66
  1524  002A44  6E08               	movwf	(___fleq@ff2+3)^0,c
  1525  002A46  ECC3  F019         	call	___fleq	;wreg free
  1526  002A4A  A0D8               	btfss	status,0,c
  1527  002A4C  EF2A  F015         	goto	u4621
  1528  002A50  EF2C  F015         	goto	u4620
  1529  002A54                     u4621:
  1530  002A54  EF9D  F014         	goto	l4015
  1531  002A58                     u4620:
  1532  002A58  0012               	return		;funcret
  1533  002A5A                     __end_of_potentiometer_temperature:
  1534                           	callstack 0
  1535                           
  1536 ;; *************** function _sprintf *****************
  1537 ;; Defined at:
  1538 ;;		line 9 in file "C:\Program Files\Microchip\xc8\v2.36\pic\sources\c99\common\nf_sprintf.c"
  1539 ;; Parameters:    Size  Location     Type
  1540 ;;  s               2   56[BANK0 ] PTR unsigned char 
  1541 ;;		 -> potentiometer_temperature@temperatura_texto(10), 
  1542 ;;  fmt             2   58[BANK0 ] PTR const unsigned char 
  1543 ;;		 -> STR_5(5), 
  1544 ;; Auto vars:     Size  Location     Type
  1545 ;;  f              11   66[BANK0 ] struct _IO_FILE
  1546 ;;  ap              2   64[BANK0 ] PTR void [1]
  1547 ;;		 -> ?_sprintf(2), 
  1548 ;;  ret             2    0        int 
  1549 ;; Return value:  Size  Location     Type
  1550 ;;                  2   56[BANK0 ] int 
  1551 ;; Registers used:
  1552 ;;		wreg, fsr1l, fsr1h, fsr2l, fsr2h, status,2, status,0, tblptrl, tblptrh, tblptru, prodl, prodh, cstack
  1553 ;; Tracked objects:
  1554 ;;		On entry : 0/0
  1555 ;;		On exit  : 0/0
  1556 ;;		Unchanged: 0/0
  1557 ;; Data sizes:     COMRAM   BANK0   BANK1   BANK2   BANK3   BANK4   BANK5   BANK6   BANK7
  1558 ;;      Params:         0       8       0       0       0       0       0       0       0
  1559 ;;      Locals:         0      13       0       0       0       0       0       0       0
  1560 ;;      Temps:          0       0       0       0       0       0       0       0       0
  1561 ;;      Totals:         0      21       0       0       0       0       0       0       0
  1562 ;;Total ram usage:       21 bytes
  1563 ;; Hardware stack levels used: 1
  1564 ;; Hardware stack levels required when called: 7
  1565 ;; This function calls:
  1566 ;;		_vfprintf
  1567 ;; This function is called by:
  1568 ;;		_potentiometer_temperature
  1569 ;; This function uses a non-reentrant model
  1570 ;;
  1571                           
  1572                           	psect	text4
  1573  0036A4                     __ptext4:
  1574                           	callstack 0
  1575  0036A4                     _sprintf:
  1576                           	callstack 22
  1577  0036A4  0E9C               	movlw	low (?_sprintf+4)
  1578  0036A6  0100               	movlb	0	; () banked
  1579  0036A8  6FA0               	movwf	sprintf@ap& (0+255),b
  1580  0036AA  0E00               	movlw	high (?_sprintf+4)
  1581  0036AC  6FA1               	movwf	(sprintf@ap+1)& (0+255),b
  1582  0036AE  C098  F0A2         	movff	sprintf@s,sprintf@f
  1583  0036B2  C099  F0A3         	movff	sprintf@s+1,sprintf@f+1
  1584  0036B6                     
  1585                           ; BSR set to: 0
  1586  0036B6  0E00               	movlw	0
  1587  0036B8  6FA6               	movwf	(sprintf@f+4)& (0+255),b
  1588  0036BA  0E00               	movlw	0
  1589  0036BC  6FA5               	movwf	(sprintf@f+3)& (0+255),b
  1590  0036BE                     
  1591                           ; BSR set to: 0
  1592  0036BE  0E00               	movlw	0
  1593  0036C0  6FAC               	movwf	(sprintf@f+10)& (0+255),b
  1594  0036C2  0E00               	movlw	0
  1595  0036C4  6FAB               	movwf	(sprintf@f+9)& (0+255),b
  1596  0036C6                     
  1597                           ; BSR set to: 0
  1598  0036C6  0EA2               	movlw	low sprintf@f
  1599  0036C8  6F92               	movwf	vfprintf@fp& (0+255),b
  1600  0036CA  0E00               	movlw	high sprintf@f
  1601  0036CC  6F93               	movwf	(vfprintf@fp+1)& (0+255),b
  1602  0036CE  C09A  F094         	movff	sprintf@fmt,vfprintf@fmt
  1603  0036D2  C09B  F095         	movff	sprintf@fmt+1,vfprintf@fmt+1
  1604  0036D6  0EA0               	movlw	low sprintf@ap
  1605  0036D8  6F96               	movwf	vfprintf@ap& (0+255),b
  1606  0036DA  0E00               	movlw	high sprintf@ap
  1607  0036DC  6F97               	movwf	(vfprintf@ap+1)& (0+255),b
  1608  0036DE  ECC3  F01A         	call	_vfprintf	;wreg free
  1609  0036E2  0100               	movlb	0	; () banked
  1610  0036E4  51A5               	movf	(sprintf@f+3)& (0+255),w,b
  1611  0036E6  2598               	addwf	sprintf@s& (0+255),w,b
  1612  0036E8  6ED9               	movwf	fsr2l,c
  1613  0036EA  51A6               	movf	(sprintf@f+4)& (0+255),w,b
  1614  0036EC  2199               	addwfc	(sprintf@s+1)& (0+255),w,b
  1615  0036EE  6EDA               	movwf	fsr2h,c
  1616  0036F0  0E00               	movlw	0
  1617  0036F2  6EDF               	movwf	indf2,c
  1618  0036F4                     
  1619                           ; BSR set to: 0
  1620  0036F4  0012               	return		;funcret
  1621  0036F6                     __end_of_sprintf:
  1622                           	callstack 0
  1623                           
  1624 ;; *************** function _vfprintf *****************
  1625 ;; Defined at:
  1626 ;;		line 1390 in file "C:\Program Files\Microchip\xc8\v2.36\pic\sources\c99\common\doprnt.c"
  1627 ;; Parameters:    Size  Location     Type
  1628 ;;  fp              2   50[BANK0 ] PTR struct _IO_FILE
  1629 ;;		 -> sprintf@f(11), 
  1630 ;;  fmt             2   52[BANK0 ] PTR const unsigned char 
  1631 ;;		 -> STR_5(5), 
  1632 ;;  ap              2   54[BANK0 ] PTR PTR void 
  1633 ;;		 -> sprintf@ap(2), 
  1634 ;; Auto vars:     Size  Location     Type
  1635 ;;  cfmt            2   93[COMRAM] PTR unsigned char 
  1636 ;;		 -> STR_5(5), 
  1637 ;; Return value:  Size  Location     Type
  1638 ;;                  2   50[BANK0 ] int 
  1639 ;; Registers used:
  1640 ;;		wreg, fsr1l, fsr1h, fsr2l, fsr2h, status,2, status,0, tblptrl, tblptrh, tblptru, prodl, prodh, cstack
  1641 ;; Tracked objects:
  1642 ;;		On entry : 0/0
  1643 ;;		On exit  : 0/0
  1644 ;;		Unchanged: 0/0
  1645 ;; Data sizes:     COMRAM   BANK0   BANK1   BANK2   BANK3   BANK4   BANK5   BANK6   BANK7
  1646 ;;      Params:         0       6       0       0       0       0       0       0       0
  1647 ;;      Locals:         2       0       0       0       0       0       0       0       0
  1648 ;;      Temps:          0       0       0       0       0       0       0       0       0
  1649 ;;      Totals:         2       6       0       0       0       0       0       0       0
  1650 ;;Total ram usage:        8 bytes
  1651 ;; Hardware stack levels used: 1
  1652 ;; Hardware stack levels required when called: 6
  1653 ;; This function calls:
  1654 ;;		_vfpfcnvrt
  1655 ;; This function is called by:
  1656 ;;		_sprintf
  1657 ;; This function uses a non-reentrant model
  1658 ;;
  1659                           
  1660                           	psect	text5
  1661  003586                     __ptext5:
  1662                           	callstack 0
  1663  003586                     _vfprintf:
  1664                           	callstack 22
  1665  003586                     
  1666                           ;C:\Program Files\Microchip\xc8\v2.36\pic\sources\c99\common\doprnt.c: 1390: int vfprint
      +                          f(FILE *fp, const char *fmt, va_list ap);C:\Program Files\Microchip\xc8\v2.36\pic\source
      +                          s\c99\common\doprnt.c: 1391: {;C:\Program Files\Microchip\xc8\v2.36\pic\sources\c99\comm
      +                          on\doprnt.c: 1393:     char *cfmt;;C:\Program Files\Microchip\xc8\v2.36\pic\sources\c99\
      +                          common\doprnt.c: 1395:     cfmt = (char *)fmt;
  1667  003586  C094  F05E         	movff	vfprintf@fmt,vfprintf@cfmt
  1668  00358A  C095  F05F         	movff	vfprintf@fmt+1,vfprintf@cfmt+1
  1669  00358E                     
  1670                           ;C:\Program Files\Microchip\xc8\v2.36\pic\sources\c99\common\doprnt.c: 1396:     nout = 
      +                          0;
  1671  00358E  0E00               	movlw	0
  1672  003590  0100               	movlb	0	; () banked
  1673  003592  6FCC               	movwf	(_nout+1)& (0+255),b
  1674  003594  0E00               	movlw	0
  1675  003596  6FCB               	movwf	_nout& (0+255),b
  1676                           
  1677                           ;C:\Program Files\Microchip\xc8\v2.36\pic\sources\c99\common\doprnt.c: 1397:     while (
      +                          *cfmt) {
  1678  003598  EFE1  F01A         	goto	l3897
  1679  00359C                     l3895:
  1680                           
  1681                           ; BSR set to: 0
  1682                           ;C:\Program Files\Microchip\xc8\v2.36\pic\sources\c99\common\doprnt.c: 1398:         nou
      +                          t += vfpfcnvrt(fp, &cfmt, ap);
  1683  00359C  C092  F04C         	movff	vfprintf@fp,vfpfcnvrt@fp
  1684  0035A0  C093  F04D         	movff	vfprintf@fp+1,vfpfcnvrt@fp+1
  1685  0035A4  0E5E               	movlw	low vfprintf@cfmt
  1686  0035A6  6E4E               	movwf	vfpfcnvrt@fmt^0,c
  1687  0035A8  0E00               	movlw	high vfprintf@cfmt
  1688  0035AA  6E4F               	movwf	(vfpfcnvrt@fmt+1)^0,c
  1689  0035AC  C096  F050         	movff	vfprintf@ap,vfpfcnvrt@ap
  1690  0035B0  C097  F051         	movff	vfprintf@ap+1,vfpfcnvrt@ap+1
  1691  0035B4  EC96  F00C         	call	_vfpfcnvrt	;wreg free
  1692  0035B8  504C               	movf	?_vfpfcnvrt^0,w,c
  1693  0035BA  0100               	movlb	0	; () banked
  1694  0035BC  27CB               	addwf	_nout& (0+255),f,b
  1695  0035BE  504D               	movf	(?_vfpfcnvrt+1)^0,w,c
  1696  0035C0  23CC               	addwfc	(_nout+1)& (0+255),f,b
  1697  0035C2                     l3897:
  1698                           
  1699                           ; BSR set to: 0
  1700                           ;C:\Program Files\Microchip\xc8\v2.36\pic\sources\c99\common\doprnt.c: 1397:     while (
      +                          *cfmt) {
  1701  0035C2  C05E  FFF6         	movff	vfprintf@cfmt,tblptrl
  1702  0035C6  C05F  FFF7         	movff	vfprintf@cfmt+1,tblptrh
  1703  0035CA                     	if	0	;tblptru may be non-zero
  1704  0035CA                     	endif
  1705  0035CA                     	if	0	;tblptru may be non-zero
  1706  0035CA                     	endif
  1707  0035CA  0008               	tblrd		*
  1708  0035CC  50F5               	movf	tablat,w,c
  1709  0035CE  0900               	iorlw	0
  1710  0035D0  A4D8               	btfss	status,2,c
  1711  0035D2  EFED  F01A         	goto	u4491
  1712  0035D6  EFEF  F01A         	goto	u4490
  1713  0035DA                     u4491:
  1714  0035DA  EFCE  F01A         	goto	l3895
  1715  0035DE                     u4490:
  1716  0035DE                     
  1717                           ; BSR set to: 0
  1718                           ;C:\Program Files\Microchip\xc8\v2.36\pic\sources\c99\common\doprnt.c: 1400:     return 
      +                          nout;
  1719  0035DE  C0CB  F092         	movff	_nout,?_vfprintf
  1720  0035E2  C0CC  F093         	movff	_nout+1,?_vfprintf+1
  1721  0035E6                     
  1722                           ; BSR set to: 0
  1723  0035E6  0012               	return		;funcret
  1724  0035E8                     __end_of_vfprintf:
  1725                           	callstack 0
  1726                           
  1727 ;; *************** function _vfpfcnvrt *****************
  1728 ;; Defined at:
  1729 ;;		line 692 in file "C:\Program Files\Microchip\xc8\v2.36\pic\sources\c99\common\doprnt.c"
  1730 ;; Parameters:    Size  Location     Type
  1731 ;;  fp              2   75[COMRAM] PTR struct _IO_FILE
  1732 ;;		 -> sprintf@f(11), 
  1733 ;;  fmt             2   77[COMRAM] PTR PTR unsigned char 
  1734 ;;		 -> vfprintf@cfmt(2), 
  1735 ;;  ap              2   79[COMRAM] PTR PTR void 
  1736 ;;		 -> sprintf@ap(2), 
  1737 ;; Auto vars:     Size  Location     Type
  1738 ;;  llu             8    0        unsigned long long 
  1739 ;;  ll              8    0        long long 
  1740 ;;  f               4   85[COMRAM] long long 
  1741 ;;  ct              3   89[COMRAM] unsigned char [3]
  1742 ;;  vp              3    0        PTR void 
  1743 ;;  cp              3    0        PTR unsigned char 
  1744 ;;  i               2    0        int 
  1745 ;;  done            2    0        int 
  1746 ;;  c               1   92[COMRAM] unsigned char 
  1747 ;; Return value:  Size  Location     Type
  1748 ;;                  2   75[COMRAM] int 
  1749 ;; Registers used:
  1750 ;;		wreg, fsr1l, fsr1h, fsr2l, fsr2h, status,2, status,0, tblptrl, tblptrh, tblptru, prodl, prodh, cstack
  1751 ;; Tracked objects:
  1752 ;;		On entry : 0/0
  1753 ;;		On exit  : 0/0
  1754 ;;		Unchanged: 0/0
  1755 ;; Data sizes:     COMRAM   BANK0   BANK1   BANK2   BANK3   BANK4   BANK5   BANK6   BANK7
  1756 ;;      Params:         6       0       0       0       0       0       0       0       0
  1757 ;;      Locals:         8       0       0       0       0       0       0       0       0
  1758 ;;      Temps:          4       0       0       0       0       0       0       0       0
  1759 ;;      Totals:        18       0       0       0       0       0       0       0       0
  1760 ;;Total ram usage:       18 bytes
  1761 ;; Hardware stack levels used: 1
  1762 ;; Hardware stack levels required when called: 5
  1763 ;; This function calls:
  1764 ;;		_atoi
  1765 ;;		_efgtoa
  1766 ;;		_fputc
  1767 ;;		_isdigit
  1768 ;;		_isupper
  1769 ;;		_strncmp
  1770 ;;		_tolower
  1771 ;; This function is called by:
  1772 ;;		_vfprintf
  1773 ;; This function uses a non-reentrant model
  1774 ;;
  1775                           
  1776                           	psect	text6
  1777  00192C                     __ptext6:
  1778                           	callstack 0
  1779  00192C                     _vfpfcnvrt:
  1780                           	callstack 22
  1781  00192C                     
  1782                           ;C:\Program Files\Microchip\xc8\v2.36\pic\sources\c99\common\doprnt.c: 692: static int v
      +                          fpfcnvrt(FILE *fp, char *fmt[], va_list ap);C:\Program Files\Microchip\xc8\v2.36\pic\sou
      +                          rces\c99\common\doprnt.c: 693: {;C:\Program Files\Microchip\xc8\v2.36\pic\sources\c99\co
      +                          mmon\doprnt.c: 694:     char c, *cp, ct[3];;C:\Program Files\Microchip\xc8\v2.36\pic\sou
      +                          rces\c99\common\doprnt.c: 695:     int done, i;;C:\Program Files\Microchip\xc8\v2.36\pic
      +                          \sources\c99\common\doprnt.c: 696:     long long ll;;C:\Program Files\Microchip\xc8\v2.3
      +                          6\pic\sources\c99\common\doprnt.c: 697:     unsigned long long llu;
  1783  00192C  C04E  FFD9         	movff	vfpfcnvrt@fmt,fsr2l
  1784  001930  C04F  FFDA         	movff	vfpfcnvrt@fmt+1,fsr2h
  1785  001934  CFDE FFF6          	movff	postinc2,tblptrl
  1786  001938  CFDD FFF7          	movff	postdec2,tblptrh
  1787  00193C                     	if	0	;tblptru may be non-zero
  1788  00193C                     	endif
  1789  00193C                     	if	0	;tblptru may be non-zero
  1790  00193C                     	endif
  1791  00193C  0008               	tblrd		*
  1792  00193E  50F5               	movf	tablat,w,c
  1793  001940  0A25               	xorlw	37
  1794  001942  A4D8               	btfss	status,2,c
  1795  001944  EFA6  F00C         	goto	u4351
  1796  001948  EFA8  F00C         	goto	u4350
  1797  00194C                     u4351:
  1798  00194C  EF90  F00E         	goto	l3849
  1799  001950                     u4350:
  1800  001950                     
  1801                           ;C:\Program Files\Microchip\xc8\v2.36\pic\sources\c99\common\doprnt.c: 703:         ++*f
      +                          mt;
  1802  001950  C04E  FFD9         	movff	vfpfcnvrt@fmt,fsr2l
  1803  001954  C04F  FFDA         	movff	vfpfcnvrt@fmt+1,fsr2h
  1804  001958  2ADE               	incf	postinc2,f,c
  1805  00195A  0E00               	movlw	0
  1806  00195C  22DD               	addwfc	postdec2,f,c
  1807  00195E                     
  1808                           ;C:\Program Files\Microchip\xc8\v2.36\pic\sources\c99\common\doprnt.c: 705:         flag
      +                          s = width = 0;
  1809  00195E  0E00               	movlw	0
  1810  001960  0100               	movlb	0	; () banked
  1811  001962  6FCE               	movwf	(_width+1)& (0+255),b
  1812  001964  0E00               	movlw	0
  1813  001966  6FCD               	movwf	_width& (0+255),b
  1814  001968  C0CD  F0D1         	movff	_width,_flags
  1815  00196C  C0CE  F0D2         	movff	_width+1,_flags+1
  1816  001970                     
  1817                           ; BSR set to: 0
  1818                           ;C:\Program Files\Microchip\xc8\v2.36\pic\sources\c99\common\doprnt.c: 706:         prec
      +                           = -1;
  1819  001970  69CF               	setf	_prec& (0+255),b
  1820  001972  69D0               	setf	(_prec+1)& (0+255),b
  1821  001974                     
  1822                           ; BSR set to: 0
  1823                           ;C:\Program Files\Microchip\xc8\v2.36\pic\sources\c99\common\doprnt.c: 762:         if (
      +                          (*fmt)[0] == '.') {
  1824  001974  C04E  FFD9         	movff	vfpfcnvrt@fmt,fsr2l
  1825  001978  C04F  FFDA         	movff	vfpfcnvrt@fmt+1,fsr2h
  1826  00197C  CFDE FFF6          	movff	postinc2,tblptrl
  1827  001980  CFDD FFF7          	movff	postdec2,tblptrh
  1828  001984                     	if	0	;tblptru may be non-zero
  1829  001984                     	endif
  1830  001984                     	if	0	;tblptru may be non-zero
  1831  001984                     	endif
  1832  001984  0008               	tblrd		*
  1833  001986  50F5               	movf	tablat,w,c
  1834  001988  0A2E               	xorlw	46
  1835  00198A  A4D8               	btfss	status,2,c
  1836  00198C  EFCA  F00C         	goto	u4361
  1837  001990  EFCC  F00C         	goto	u4360
  1838  001994                     u4361:
  1839  001994  EF3C  F00D         	goto	l3795
  1840  001998                     u4360:
  1841  001998                     
  1842                           ; BSR set to: 0
  1843                           ;C:\Program Files\Microchip\xc8\v2.36\pic\sources\c99\common\doprnt.c: 763:             
      +                          prec = 0;
  1844  001998  0E00               	movlw	0
  1845  00199A  6FD0               	movwf	(_prec+1)& (0+255),b
  1846  00199C  0E00               	movlw	0
  1847  00199E  6FCF               	movwf	_prec& (0+255),b
  1848  0019A0                     
  1849                           ; BSR set to: 0
  1850                           ;C:\Program Files\Microchip\xc8\v2.36\pic\sources\c99\common\doprnt.c: 764:             
      +                          ++*fmt;
  1851  0019A0  C04E  FFD9         	movff	vfpfcnvrt@fmt,fsr2l
  1852  0019A4  C04F  FFDA         	movff	vfpfcnvrt@fmt+1,fsr2h
  1853  0019A8  2ADE               	incf	postinc2,f,c
  1854  0019AA  0E00               	movlw	0
  1855  0019AC  22DD               	addwfc	postdec2,f,c
  1856  0019AE                     
  1857                           ; BSR set to: 0
  1858                           ;C:\Program Files\Microchip\xc8\v2.36\pic\sources\c99\common\doprnt.c: 765:             
      +                          if ((*fmt)[0] == '*') {
  1859  0019AE  C04E  FFD9         	movff	vfpfcnvrt@fmt,fsr2l
  1860  0019B2  C04F  FFDA         	movff	vfpfcnvrt@fmt+1,fsr2h
  1861  0019B6  CFDE FFF6          	movff	postinc2,tblptrl
  1862  0019BA  CFDD FFF7          	movff	postdec2,tblptrh
  1863  0019BE                     	if	0	;tblptru may be non-zero
  1864  0019BE                     	endif
  1865  0019BE                     	if	0	;tblptru may be non-zero
  1866  0019BE                     	endif
  1867  0019BE  0008               	tblrd		*
  1868  0019C0  50F5               	movf	tablat,w,c
  1869  0019C2  0A2A               	xorlw	42
  1870  0019C4  A4D8               	btfss	status,2,c
  1871  0019C6  EFE7  F00C         	goto	u4371
  1872  0019CA  EFE9  F00C         	goto	u4370
  1873  0019CE                     u4371:
  1874  0019CE  EF06  F00D         	goto	l3787
  1875  0019D2                     u4370:
  1876  0019D2                     
  1877                           ; BSR set to: 0
  1878                           ;C:\Program Files\Microchip\xc8\v2.36\pic\sources\c99\common\doprnt.c: 766:             
      +                              ++*fmt;
  1879  0019D2  C04E  FFD9         	movff	vfpfcnvrt@fmt,fsr2l
  1880  0019D6  C04F  FFDA         	movff	vfpfcnvrt@fmt+1,fsr2h
  1881  0019DA  2ADE               	incf	postinc2,f,c
  1882  0019DC  0E00               	movlw	0
  1883  0019DE  22DD               	addwfc	postdec2,f,c
  1884                           
  1885                           ;C:\Program Files\Microchip\xc8\v2.36\pic\sources\c99\common\doprnt.c: 767:             
      +                              prec = (*(int *)__va_arg(*(int **)ap, (int)0));
  1886  0019E0  C050  FFD9         	movff	vfpfcnvrt@ap,fsr2l
  1887  0019E4  C051  FFDA         	movff	vfpfcnvrt@ap+1,fsr2h
  1888  0019E8  CFDF F052          	movff	indf2,??_vfpfcnvrt
  1889  0019EC  0E02               	movlw	2
  1890  0019EE  26DE               	addwf	postinc2,f,c
  1891  0019F0  CFDF F053          	movff	indf2,??_vfpfcnvrt+1
  1892  0019F4  0E00               	movlw	0
  1893  0019F6  22DD               	addwfc	postdec2,f,c
  1894  0019F8  C052  FFD9         	movff	??_vfpfcnvrt,fsr2l
  1895  0019FC  C053  FFDA         	movff	??_vfpfcnvrt+1,fsr2h
  1896  001A00  CFDE F0CF          	movff	postinc2,_prec
  1897  001A04  CFDD F0D0          	movff	postdec2,_prec+1
  1898                           
  1899                           ;C:\Program Files\Microchip\xc8\v2.36\pic\sources\c99\common\doprnt.c: 768:             
      +                          } else {
  1900  001A08  EF3C  F00D         	goto	l3795
  1901  001A0C                     l3787:
  1902                           
  1903                           ; BSR set to: 0
  1904                           ;C:\Program Files\Microchip\xc8\v2.36\pic\sources\c99\common\doprnt.c: 769:             
      +                              prec = atoi(*fmt);
  1905  001A0C  C04E  FFD9         	movff	vfpfcnvrt@fmt,fsr2l
  1906  001A10  C04F  FFDA         	movff	vfpfcnvrt@fmt+1,fsr2h
  1907  001A14  CFDE F008          	movff	postinc2,atoi@s
  1908  001A18  CFDD F009          	movff	postdec2,atoi@s+1
  1909  001A1C  EC2D  F015         	call	_atoi	;wreg free
  1910  001A20  C008  F0CF         	movff	?_atoi,_prec
  1911  001A24  C009  F0D0         	movff	?_atoi+1,_prec+1
  1912                           
  1913                           ;C:\Program Files\Microchip\xc8\v2.36\pic\sources\c99\common\doprnt.c: 770:             
      +                              while ((0 && isdigit((*fmt)[0]), ((unsigned)((*fmt)[0])-'0') < 10)) {
  1914  001A28  EF1D  F00D         	goto	l3793
  1915  001A2C                     l3789:
  1916                           
  1917                           ;C:\Program Files\Microchip\xc8\v2.36\pic\sources\c99\common\doprnt.c: 771:             
      +                                  ++*fmt;
  1918  001A2C  C04E  FFD9         	movff	vfpfcnvrt@fmt,fsr2l
  1919  001A30  C04F  FFDA         	movff	vfpfcnvrt@fmt+1,fsr2h
  1920  001A34  2ADE               	incf	postinc2,f,c
  1921  001A36  0E00               	movlw	0
  1922  001A38  22DD               	addwfc	postdec2,f,c
  1923  001A3A                     l3793:
  1924  001A3A  0ED0               	movlw	208
  1925  001A3C  6E52               	movwf	??_vfpfcnvrt^0,c
  1926  001A3E  0EFF               	movlw	255
  1927  001A40  6E53               	movwf	(??_vfpfcnvrt+1)^0,c
  1928  001A42  C04E  FFD9         	movff	vfpfcnvrt@fmt,fsr2l
  1929  001A46  C04F  FFDA         	movff	vfpfcnvrt@fmt+1,fsr2h
  1930  001A4A  CFDE FFF6          	movff	postinc2,tblptrl
  1931  001A4E  CFDD FFF7          	movff	postdec2,tblptrh
  1932  001A52                     	if	0	;tblptru may be non-zero
  1933  001A52                     	endif
  1934  001A52                     	if	0	;tblptru may be non-zero
  1935  001A52                     	endif
  1936  001A52  0008               	tblrd		*
  1937  001A54  50F5               	movf	tablat,w,c
  1938  001A56  6E54               	movwf	(??_vfpfcnvrt+2)^0,c
  1939  001A58  6A55               	clrf	(??_vfpfcnvrt+3)^0,c
  1940  001A5A  5052               	movf	??_vfpfcnvrt^0,w,c
  1941  001A5C  2654               	addwf	(??_vfpfcnvrt+2)^0,f,c
  1942  001A5E  5053               	movf	(??_vfpfcnvrt+1)^0,w,c
  1943  001A60  2255               	addwfc	(??_vfpfcnvrt+3)^0,f,c
  1944  001A62  5055               	movf	(??_vfpfcnvrt+3)^0,w,c
  1945  001A64  E109               	bnz	u4380
  1946  001A66  0E0A               	movlw	10
  1947  001A68  5C54               	subwf	(??_vfpfcnvrt+2)^0,w,c
  1948  001A6A  A0D8               	btfss	status,0,c
  1949  001A6C  EF3A  F00D         	goto	u4381
  1950  001A70  EF3C  F00D         	goto	u4380
  1951  001A74                     u4381:
  1952  001A74  EF16  F00D         	goto	l3789
  1953  001A78                     u4380:
  1954  001A78                     l3795:
  1955                           
  1956                           ;C:\Program Files\Microchip\xc8\v2.36\pic\sources\c99\common\doprnt.c: 779:         ct[0
      +                          ] = (char)tolower((int)(*fmt)[0]);
  1957  001A78  C04E  FFD9         	movff	vfpfcnvrt@fmt,fsr2l
  1958  001A7C  C04F  FFDA         	movff	vfpfcnvrt@fmt+1,fsr2h
  1959  001A80  CFDE FFF6          	movff	postinc2,tblptrl
  1960  001A84  CFDD FFF7          	movff	postdec2,tblptrh
  1961  001A88                     	if	0	;tblptru may be non-zero
  1962  001A88                     	endif
  1963  001A88                     	if	0	;tblptru may be non-zero
  1964  001A88                     	endif
  1965  001A88  0008               	tblrd		*
  1966  001A8A  50F5               	movf	tablat,w,c
  1967  001A8C  6E07               	movwf	tolower@c^0,c
  1968  001A8E  6A08               	clrf	(tolower@c+1)^0,c
  1969  001A90  ECA4  F01B         	call	_tolower	;wreg free
  1970  001A94  5007               	movf	?_tolower^0,w,c
  1971  001A96  6E5A               	movwf	vfpfcnvrt@ct^0,c
  1972  001A98                     
  1973                           ;C:\Program Files\Microchip\xc8\v2.36\pic\sources\c99\common\doprnt.c: 780:         if (
      +                          ct[0]) {
  1974  001A98  505A               	movf	vfpfcnvrt@ct^0,w,c
  1975  001A9A  B4D8               	btfsc	status,2,c
  1976  001A9C  EF52  F00D         	goto	u4391
  1977  001AA0  EF54  F00D         	goto	u4390
  1978  001AA4                     u4391:
  1979  001AA4  EF8C  F00D         	goto	l3805
  1980  001AA8                     u4390:
  1981  001AA8                     
  1982                           ;C:\Program Files\Microchip\xc8\v2.36\pic\sources\c99\common\doprnt.c: 781:             
      +                          ct[1] = (char)tolower((int)(*fmt)[1]);
  1983  001AA8  C04E  FFD9         	movff	vfpfcnvrt@fmt,fsr2l
  1984  001AAC  C04F  FFDA         	movff	vfpfcnvrt@fmt+1,fsr2h
  1985  001AB0  CFDE F052          	movff	postinc2,??_vfpfcnvrt
  1986  001AB4  CFDD F053          	movff	postdec2,??_vfpfcnvrt+1
  1987  001AB8  0E01               	movlw	1
  1988  001ABA  2652               	addwf	??_vfpfcnvrt^0,f,c
  1989  001ABC  0E00               	movlw	0
  1990  001ABE  2253               	addwfc	(??_vfpfcnvrt+1)^0,f,c
  1991  001AC0  C052  FFF6         	movff	??_vfpfcnvrt,tblptrl
  1992  001AC4  C053  FFF7         	movff	??_vfpfcnvrt+1,tblptrh
  1993  001AC8                     	if	0	;tblptru may be non-zero
  1994  001AC8                     	endif
  1995  001AC8                     	if	0	;tblptru may be non-zero
  1996  001AC8                     	endif
  1997  001AC8  0008               	tblrd		*
  1998  001ACA  50F5               	movf	tablat,w,c
  1999  001ACC  6E07               	movwf	tolower@c^0,c
  2000  001ACE  6A08               	clrf	(tolower@c+1)^0,c
  2001  001AD0  ECA4  F01B         	call	_tolower	;wreg free
  2002  001AD4  5007               	movf	?_tolower^0,w,c
  2003  001AD6  6E5B               	movwf	(vfpfcnvrt@ct+1)^0,c
  2004  001AD8                     
  2005                           ;C:\Program Files\Microchip\xc8\v2.36\pic\sources\c99\common\doprnt.c: 782:             
      +                          if (ct[1]) {
  2006  001AD8  505B               	movf	(vfpfcnvrt@ct+1)^0,w,c
  2007  001ADA  B4D8               	btfsc	status,2,c
  2008  001ADC  EF72  F00D         	goto	u4401
  2009  001AE0  EF74  F00D         	goto	u4400
  2010  001AE4                     u4401:
  2011  001AE4  EF8C  F00D         	goto	l3805
  2012  001AE8                     u4400:
  2013  001AE8                     
  2014                           ;C:\Program Files\Microchip\xc8\v2.36\pic\sources\c99\common\doprnt.c: 783:             
      +                              ct[2] = (char)tolower((int)(*fmt)[2]);
  2015  001AE8  C04E  FFD9         	movff	vfpfcnvrt@fmt,fsr2l
  2016  001AEC  C04F  FFDA         	movff	vfpfcnvrt@fmt+1,fsr2h
  2017  001AF0  CFDE F052          	movff	postinc2,??_vfpfcnvrt
  2018  001AF4  CFDD F053          	movff	postdec2,??_vfpfcnvrt+1
  2019  001AF8  0E02               	movlw	2
  2020  001AFA  2652               	addwf	??_vfpfcnvrt^0,f,c
  2021  001AFC  0E00               	movlw	0
  2022  001AFE  2253               	addwfc	(??_vfpfcnvrt+1)^0,f,c
  2023  001B00  C052  FFF6         	movff	??_vfpfcnvrt,tblptrl
  2024  001B04  C053  FFF7         	movff	??_vfpfcnvrt+1,tblptrh
  2025  001B08                     	if	0	;tblptru may be non-zero
  2026  001B08                     	endif
  2027  001B08                     	if	0	;tblptru may be non-zero
  2028  001B08                     	endif
  2029  001B08  0008               	tblrd		*
  2030  001B0A  50F5               	movf	tablat,w,c
  2031  001B0C  6E07               	movwf	tolower@c^0,c
  2032  001B0E  6A08               	clrf	(tolower@c+1)^0,c
  2033  001B10  ECA4  F01B         	call	_tolower	;wreg free
  2034  001B14  5007               	movf	?_tolower^0,w,c
  2035  001B16  6E5C               	movwf	(vfpfcnvrt@ct+2)^0,c
  2036  001B18                     l3805:
  2037                           
  2038                           ;C:\Program Files\Microchip\xc8\v2.36\pic\sources\c99\common\doprnt.c: 942:         if (
      +                          ct[0] == 'f') {
  2039  001B18  0E66               	movlw	102
  2040  001B1A  185A               	xorwf	vfpfcnvrt@ct^0,w,c
  2041  001B1C  A4D8               	btfss	status,2,c
  2042  001B1E  EF93  F00D         	goto	u4411
  2043  001B22  EF95  F00D         	goto	u4410
  2044  001B26                     u4411:
  2045  001B26  EFD5  F00D         	goto	l3817
  2046  001B2A                     u4410:
  2047  001B2A                     
  2048                           ;C:\Program Files\Microchip\xc8\v2.36\pic\sources\c99\common\doprnt.c: 944:             
      +                          c = (*fmt)[0];
  2049  001B2A  C04E  FFD9         	movff	vfpfcnvrt@fmt,fsr2l
  2050  001B2E  C04F  FFDA         	movff	vfpfcnvrt@fmt+1,fsr2h
  2051  001B32  CFDE FFF6          	movff	postinc2,tblptrl
  2052  001B36  CFDD FFF7          	movff	postdec2,tblptrh
  2053  001B3A                     	if	0	;tblptru may be non-zero
  2054  001B3A                     	endif
  2055  001B3A                     	if	0	;tblptru may be non-zero
  2056  001B3A                     	endif
  2057  001B3A  0008               	tblrd		*
  2058  001B3C  CFF5 F05D          	movff	tablat,vfpfcnvrt@c
  2059  001B40                     
  2060                           ;C:\Program Files\Microchip\xc8\v2.36\pic\sources\c99\common\doprnt.c: 945:             
      +                          ++*fmt;
  2061  001B40  C04E  FFD9         	movff	vfpfcnvrt@fmt,fsr2l
  2062  001B44  C04F  FFDA         	movff	vfpfcnvrt@fmt+1,fsr2h
  2063  001B48  2ADE               	incf	postinc2,f,c
  2064  001B4A  0E00               	movlw	0
  2065  001B4C  22DD               	addwfc	postdec2,f,c
  2066  001B4E                     
  2067                           ;C:\Program Files\Microchip\xc8\v2.36\pic\sources\c99\common\doprnt.c: 946:             
      +                          f = (long double)(*(double *)__va_arg(*(double **)ap, (double)0));
  2068  001B4E  C050  FFD9         	movff	vfpfcnvrt@ap,fsr2l
  2069  001B52  C051  FFDA         	movff	vfpfcnvrt@ap+1,fsr2h
  2070  001B56  CFDF F052          	movff	indf2,??_vfpfcnvrt
  2071  001B5A  0E04               	movlw	4
  2072  001B5C  26DE               	addwf	postinc2,f,c
  2073  001B5E  CFDF F053          	movff	indf2,??_vfpfcnvrt+1
  2074  001B62  0E00               	movlw	0
  2075  001B64  22DD               	addwfc	postdec2,f,c
  2076  001B66  C052  FFD9         	movff	??_vfpfcnvrt,fsr2l
  2077  001B6A  C053  FFDA         	movff	??_vfpfcnvrt+1,fsr2h
  2078  001B6E  CFDE F056          	movff	postinc2,vfpfcnvrt@f
  2079  001B72  CFDE F057          	movff	postinc2,vfpfcnvrt@f+1
  2080  001B76  CFDE F058          	movff	postinc2,vfpfcnvrt@f+2
  2081  001B7A  CFDE F059          	movff	postinc2,vfpfcnvrt@f+3
  2082  001B7E                     l3813:
  2083                           
  2084                           ;C:\Program Files\Microchip\xc8\v2.36\pic\sources\c99\common\doprnt.c: 948:             
      +                          return efgtoa(fp, f, c);
  2085  001B7E  C04C  F040         	movff	vfpfcnvrt@fp,efgtoa@fp
  2086  001B82  C04D  F041         	movff	vfpfcnvrt@fp+1,efgtoa@fp+1
  2087  001B86  C056  F042         	movff	vfpfcnvrt@f,efgtoa@f
  2088  001B8A  C057  F043         	movff	vfpfcnvrt@f+1,efgtoa@f+1
  2089  001B8E  C058  F044         	movff	vfpfcnvrt@f+2,efgtoa@f+2
  2090  001B92  C059  F045         	movff	vfpfcnvrt@f+3,efgtoa@f+3
  2091  001B96  C05D  F046         	movff	vfpfcnvrt@c,efgtoa@c
  2092  001B9A  EC2F  F004         	call	_efgtoa	;wreg free
  2093  001B9E  C040  F04C         	movff	?_efgtoa,?_vfpfcnvrt
  2094  001BA2  C041  F04D         	movff	?_efgtoa+1,?_vfpfcnvrt+1
  2095  001BA6  EFAB  F00E         	goto	l939
  2096  001BAA                     l3817:
  2097                           
  2098                           ;C:\Program Files\Microchip\xc8\v2.36\pic\sources\c99\common\doprnt.c: 950:         if (
      +                          !strncmp(ct, "lf", ((sizeof("lf")/sizeof("lf"[0]))-1))) {
  2099  001BAA  0E5A               	movlw	low vfpfcnvrt@ct
  2100  001BAC  6E01               	movwf	strncmp@_l^0,c
  2101  001BAE  0E00               	movlw	high vfpfcnvrt@ct
  2102  001BB0  6E02               	movwf	(strncmp@_l+1)^0,c
  2103  001BB2  0E59               	movlw	low STR_16
  2104  001BB4  6E03               	movwf	strncmp@_r^0,c
  2105  001BB6  0E08               	movlw	high STR_16
  2106  001BB8  6E04               	movwf	(strncmp@_r+1)^0,c
  2107  001BBA  0E00               	movlw	0
  2108  001BBC  6E06               	movwf	(strncmp@n+1)^0,c
  2109  001BBE  0E02               	movlw	2
  2110  001BC0  6E05               	movwf	strncmp@n^0,c
  2111  001BC2  ECD6  F017         	call	_strncmp	;wreg free
  2112  001BC6  5001               	movf	?_strncmp^0,w,c
  2113  001BC8  1002               	iorwf	(?_strncmp+1)^0,w,c
  2114  001BCA  A4D8               	btfss	status,2,c
  2115  001BCC  EFEA  F00D         	goto	u4421
  2116  001BD0  EFEC  F00D         	goto	u4420
  2117  001BD4                     u4421:
  2118  001BD4  EF5A  F00E         	goto	l3833
  2119  001BD8                     u4420:
  2120  001BD8                     
  2121                           ;C:\Program Files\Microchip\xc8\v2.36\pic\sources\c99\common\doprnt.c: 952:             
      +                          c = (*fmt)[1];
  2122  001BD8  C04E  FFD9         	movff	vfpfcnvrt@fmt,fsr2l
  2123  001BDC  C04F  FFDA         	movff	vfpfcnvrt@fmt+1,fsr2h
  2124  001BE0  CFDE F052          	movff	postinc2,??_vfpfcnvrt
  2125  001BE4  CFDD F053          	movff	postdec2,??_vfpfcnvrt+1
  2126  001BE8  0E01               	movlw	1
  2127  001BEA  2652               	addwf	??_vfpfcnvrt^0,f,c
  2128  001BEC  0E00               	movlw	0
  2129  001BEE  2253               	addwfc	(??_vfpfcnvrt+1)^0,f,c
  2130  001BF0  C052  FFF6         	movff	??_vfpfcnvrt,tblptrl
  2131  001BF4  C053  FFF7         	movff	??_vfpfcnvrt+1,tblptrh
  2132  001BF8                     	if	0	;tblptru may be non-zero
  2133  001BF8                     	endif
  2134  001BF8                     	if	0	;tblptru may be non-zero
  2135  001BF8                     	endif
  2136  001BF8  0008               	tblrd		*
  2137  001BFA  CFF5 F05D          	movff	tablat,vfpfcnvrt@c
  2138  001BFE  0EBF               	movlw	191
  2139  001C00  6E52               	movwf	??_vfpfcnvrt^0,c
  2140  001C02  0EFF               	movlw	255
  2141  001C04  6E53               	movwf	(??_vfpfcnvrt+1)^0,c
  2142  001C06  C04E  FFD9         	movff	vfpfcnvrt@fmt,fsr2l
  2143  001C0A  C04F  FFDA         	movff	vfpfcnvrt@fmt+1,fsr2h
  2144  001C0E  CFDE FFF6          	movff	postinc2,tblptrl
  2145  001C12  CFDD FFF7          	movff	postdec2,tblptrh
  2146  001C16                     	if	0	;tblptru may be non-zero
  2147  001C16                     	endif
  2148  001C16                     	if	0	;tblptru may be non-zero
  2149  001C16                     	endif
  2150  001C16  0008               	tblrd		*
  2151  001C18  50F5               	movf	tablat,w,c
  2152  001C1A  6E54               	movwf	(??_vfpfcnvrt+2)^0,c
  2153  001C1C  6A55               	clrf	(??_vfpfcnvrt+3)^0,c
  2154  001C1E  5052               	movf	??_vfpfcnvrt^0,w,c
  2155  001C20  2654               	addwf	(??_vfpfcnvrt+2)^0,f,c
  2156  001C22  5053               	movf	(??_vfpfcnvrt+1)^0,w,c
  2157  001C24  2255               	addwfc	(??_vfpfcnvrt+3)^0,f,c
  2158  001C26  5055               	movf	(??_vfpfcnvrt+3)^0,w,c
  2159  001C28  E107               	bnz	u4431
  2160  001C2A  0E1A               	movlw	26
  2161  001C2C  5C54               	subwf	(??_vfpfcnvrt+2)^0,w,c
  2162  001C2E  B0D8               	btfsc	status,0,c
  2163  001C30  EF1C  F00E         	goto	u4431
  2164  001C34  EF1E  F00E         	goto	u4430
  2165  001C38                     u4431:
  2166  001C38  EF38  F00E         	goto	l3827
  2167  001C3C                     u4430:
  2168  001C3C                     
  2169                           ;C:\Program Files\Microchip\xc8\v2.36\pic\sources\c99\common\doprnt.c: 954:             
      +                              f = (*(long double *)__va_arg(*(long double **)ap, (long double)0));
  2170  001C3C  C050  FFD9         	movff	vfpfcnvrt@ap,fsr2l
  2171  001C40  C051  FFDA         	movff	vfpfcnvrt@ap+1,fsr2h
  2172  001C44  CFDF F052          	movff	indf2,??_vfpfcnvrt
  2173  001C48  0E04               	movlw	4
  2174  001C4A  26DE               	addwf	postinc2,f,c
  2175  001C4C  CFDF F053          	movff	indf2,??_vfpfcnvrt+1
  2176  001C50  0E00               	movlw	0
  2177  001C52  22DD               	addwfc	postdec2,f,c
  2178  001C54  C052  FFD9         	movff	??_vfpfcnvrt,fsr2l
  2179  001C58  C053  FFDA         	movff	??_vfpfcnvrt+1,fsr2h
  2180  001C5C  CFDE F056          	movff	postinc2,vfpfcnvrt@f
  2181  001C60  CFDE F057          	movff	postinc2,vfpfcnvrt@f+1
  2182  001C64  CFDE F058          	movff	postinc2,vfpfcnvrt@f+2
  2183  001C68  CFDE F059          	movff	postinc2,vfpfcnvrt@f+3
  2184                           
  2185                           ;C:\Program Files\Microchip\xc8\v2.36\pic\sources\c99\common\doprnt.c: 955:             
      +                          } else {
  2186  001C6C  EF50  F00E         	goto	l944
  2187  001C70                     l3827:
  2188                           
  2189                           ;C:\Program Files\Microchip\xc8\v2.36\pic\sources\c99\common\doprnt.c: 956:             
      +                              f = (long double)(*(double *)__va_arg(*(double **)ap, (double)0));
  2190  001C70  C050  FFD9         	movff	vfpfcnvrt@ap,fsr2l
  2191  001C74  C051  FFDA         	movff	vfpfcnvrt@ap+1,fsr2h
  2192  001C78  CFDF F052          	movff	indf2,??_vfpfcnvrt
  2193  001C7C  0E04               	movlw	4
  2194  001C7E  26DE               	addwf	postinc2,f,c
  2195  001C80  CFDF F053          	movff	indf2,??_vfpfcnvrt+1
  2196  001C84  0E00               	movlw	0
  2197  001C86  22DD               	addwfc	postdec2,f,c
  2198  001C88  C052  FFD9         	movff	??_vfpfcnvrt,fsr2l
  2199  001C8C  C053  FFDA         	movff	??_vfpfcnvrt+1,fsr2h
  2200  001C90  CFDE F056          	movff	postinc2,vfpfcnvrt@f
  2201  001C94  CFDE F057          	movff	postinc2,vfpfcnvrt@f+1
  2202  001C98  CFDE F058          	movff	postinc2,vfpfcnvrt@f+2
  2203  001C9C  CFDE F059          	movff	postinc2,vfpfcnvrt@f+3
  2204  001CA0                     l944:
  2205                           
  2206                           ;C:\Program Files\Microchip\xc8\v2.36\pic\sources\c99\common\doprnt.c: 958:             
      +                          *fmt += ((sizeof("lf")/sizeof("lf"[0]))-1);
  2207  001CA0  0E02               	movlw	2
  2208  001CA2  C04E  FFD9         	movff	vfpfcnvrt@fmt,fsr2l
  2209  001CA6  C04F  FFDA         	movff	vfpfcnvrt@fmt+1,fsr2h
  2210  001CAA  26DE               	addwf	postinc2,f,c
  2211  001CAC  0E00               	movlw	0
  2212  001CAE  22DD               	addwfc	postdec2,f,c
  2213  001CB0  EFBF  F00D         	goto	l3813
  2214  001CB4                     l3833:
  2215                           
  2216                           ;C:\Program Files\Microchip\xc8\v2.36\pic\sources\c99\common\doprnt.c: 1372:         if 
      +                          ((*fmt)[0] == '%') {
  2217  001CB4  C04E  FFD9         	movff	vfpfcnvrt@fmt,fsr2l
  2218  001CB8  C04F  FFDA         	movff	vfpfcnvrt@fmt+1,fsr2h
  2219  001CBC  CFDE FFF6          	movff	postinc2,tblptrl
  2220  001CC0  CFDD FFF7          	movff	postdec2,tblptrh
  2221  001CC4                     	if	0	;tblptru may be non-zero
  2222  001CC4                     	endif
  2223  001CC4                     	if	0	;tblptru may be non-zero
  2224  001CC4                     	endif
  2225  001CC4  0008               	tblrd		*
  2226  001CC6  50F5               	movf	tablat,w,c
  2227  001CC8  0A25               	xorlw	37
  2228  001CCA  A4D8               	btfss	status,2,c
  2229  001CCC  EF6A  F00E         	goto	u4441
  2230  001CD0  EF6C  F00E         	goto	u4440
  2231  001CD4                     u4441:
  2232  001CD4  EF83  F00E         	goto	l3843
  2233  001CD8                     u4440:
  2234  001CD8                     
  2235                           ;C:\Program Files\Microchip\xc8\v2.36\pic\sources\c99\common\doprnt.c: 1373:            
      +                           ++*fmt;
  2236  001CD8  C04E  FFD9         	movff	vfpfcnvrt@fmt,fsr2l
  2237  001CDC  C04F  FFDA         	movff	vfpfcnvrt@fmt+1,fsr2h
  2238  001CE0  2ADE               	incf	postinc2,f,c
  2239  001CE2  0E00               	movlw	0
  2240  001CE4  22DD               	addwfc	postdec2,f,c
  2241  001CE6                     
  2242                           ;C:\Program Files\Microchip\xc8\v2.36\pic\sources\c99\common\doprnt.c: 1374:            
      +                           fputc((int)'%', fp);
  2243  001CE6  0E00               	movlw	0
  2244  001CE8  6E02               	movwf	(fputc@c+1)^0,c
  2245  001CEA  0E25               	movlw	37
  2246  001CEC  6E01               	movwf	fputc@c^0,c
  2247  001CEE  C04C  F003         	movff	vfpfcnvrt@fp,fputc@fp
  2248  001CF2  C04D  F004         	movff	vfpfcnvrt@fp+1,fputc@fp+1
  2249  001CF6  EC41  F018         	call	_fputc	;wreg free
  2250  001CFA                     l3839:
  2251                           
  2252                           ;C:\Program Files\Microchip\xc8\v2.36\pic\sources\c99\common\doprnt.c: 1375:            
      +                           return 1;
  2253  001CFA  0E00               	movlw	0
  2254  001CFC  6E4D               	movwf	(?_vfpfcnvrt+1)^0,c
  2255  001CFE  0E01               	movlw	1
  2256  001D00  6E4C               	movwf	?_vfpfcnvrt^0,c
  2257  001D02  EFAB  F00E         	goto	l939
  2258  001D06                     l3843:
  2259                           
  2260                           ;C:\Program Files\Microchip\xc8\v2.36\pic\sources\c99\common\doprnt.c: 1379:         ++*
      +                          fmt;
  2261  001D06  C04E  FFD9         	movff	vfpfcnvrt@fmt,fsr2l
  2262  001D0A  C04F  FFDA         	movff	vfpfcnvrt@fmt+1,fsr2h
  2263  001D0E  2ADE               	incf	postinc2,f,c
  2264  001D10  0E00               	movlw	0
  2265  001D12  22DD               	addwfc	postdec2,f,c
  2266  001D14                     
  2267                           ;C:\Program Files\Microchip\xc8\v2.36\pic\sources\c99\common\doprnt.c: 1380:         ret
      +                          urn 0;
  2268  001D14  0E00               	movlw	0
  2269  001D16  6E4D               	movwf	(?_vfpfcnvrt+1)^0,c
  2270  001D18  0E00               	movlw	0
  2271  001D1A  6E4C               	movwf	?_vfpfcnvrt^0,c
  2272  001D1C  EFAB  F00E         	goto	l939
  2273  001D20                     l3849:
  2274                           
  2275                           ;C:\Program Files\Microchip\xc8\v2.36\pic\sources\c99\common\doprnt.c: 1384:     fputc((
      +                          int)(*fmt)[0], fp);
  2276  001D20  C04E  FFD9         	movff	vfpfcnvrt@fmt,fsr2l
  2277  001D24  C04F  FFDA         	movff	vfpfcnvrt@fmt+1,fsr2h
  2278  001D28  CFDE FFF6          	movff	postinc2,tblptrl
  2279  001D2C  CFDD FFF7          	movff	postdec2,tblptrh
  2280  001D30                     	if	0	;tblptru may be non-zero
  2281  001D30                     	endif
  2282  001D30                     	if	0	;tblptru may be non-zero
  2283  001D30                     	endif
  2284  001D30  0008               	tblrd		*
  2285  001D32  50F5               	movf	tablat,w,c
  2286  001D34  6E01               	movwf	fputc@c^0,c
  2287  001D36  6A02               	clrf	(fputc@c+1)^0,c
  2288  001D38  C04C  F003         	movff	vfpfcnvrt@fp,fputc@fp
  2289  001D3C  C04D  F004         	movff	vfpfcnvrt@fp+1,fputc@fp+1
  2290  001D40  EC41  F018         	call	_fputc	;wreg free
  2291  001D44                     
  2292                           ;C:\Program Files\Microchip\xc8\v2.36\pic\sources\c99\common\doprnt.c: 1385:     ++*fmt;
  2293  001D44  C04E  FFD9         	movff	vfpfcnvrt@fmt,fsr2l
  2294  001D48  C04F  FFDA         	movff	vfpfcnvrt@fmt+1,fsr2h
  2295  001D4C  2ADE               	incf	postinc2,f,c
  2296  001D4E  0E00               	movlw	0
  2297  001D50  22DD               	addwfc	postdec2,f,c
  2298  001D52  EF7D  F00E         	goto	l3839
  2299  001D56                     l939:
  2300  001D56  0012               	return		;funcret
  2301  001D58                     __end_of_vfpfcnvrt:
  2302                           	callstack 0
  2303                           
  2304 ;; *************** function _strncmp *****************
  2305 ;; Defined at:
  2306 ;;		line 3 in file "C:\Program Files\Microchip\xc8\v2.36\pic\sources\c99\common\strncmp.c"
  2307 ;; Parameters:    Size  Location     Type
  2308 ;;  _l              2    0[COMRAM] PTR const unsigned char 
  2309 ;;		 -> vfpfcnvrt@ct(3), 
  2310 ;;  _r              2    2[COMRAM] PTR const unsigned char 
  2311 ;;		 -> STR_18(3), 
  2312 ;;  n               2    4[COMRAM] unsigned int 
  2313 ;; Auto vars:     Size  Location     Type
  2314 ;;  r               2    9[COMRAM] PTR const unsigned char 
  2315 ;;		 -> STR_18(3), 
  2316 ;;  l               2    7[COMRAM] PTR const unsigned char 
  2317 ;;		 -> vfpfcnvrt@ct(3), 
  2318 ;; Return value:  Size  Location     Type
  2319 ;;                  2    0[COMRAM] int 
  2320 ;; Registers used:
  2321 ;;		wreg, fsr2l, fsr2h, status,2, status,0, tblptrl, tblptrh, tblptru
  2322 ;; Tracked objects:
  2323 ;;		On entry : 0/0
  2324 ;;		On exit  : 0/0
  2325 ;;		Unchanged: 0/0
  2326 ;; Data sizes:     COMRAM   BANK0   BANK1   BANK2   BANK3   BANK4   BANK5   BANK6   BANK7
  2327 ;;      Params:         6       0       0       0       0       0       0       0       0
  2328 ;;      Locals:         4       0       0       0       0       0       0       0       0
  2329 ;;      Temps:          1       0       0       0       0       0       0       0       0
  2330 ;;      Totals:        11       0       0       0       0       0       0       0       0
  2331 ;;Total ram usage:       11 bytes
  2332 ;; Hardware stack levels used: 1
  2333 ;; This function calls:
  2334 ;;		Nothing
  2335 ;; This function is called by:
  2336 ;;		_vfpfcnvrt
  2337 ;; This function uses a non-reentrant model
  2338 ;;
  2339                           
  2340                           	psect	text7
  2341  002FAC                     __ptext7:
  2342                           	callstack 0
  2343  002FAC                     _strncmp:
  2344                           	callstack 26
  2345  002FAC  C001  F008         	movff	strncmp@_l,strncmp@l
  2346  002FB0  C002  F009         	movff	strncmp@_l+1,strncmp@l+1
  2347  002FB4  C003  F00A         	movff	strncmp@_r,strncmp@r
  2348  002FB8  C004  F00B         	movff	strncmp@_r+1,strncmp@r+1
  2349  002FBC  0605               	decf	strncmp@n^0,f,c
  2350  002FBE  A0D8               	btfss	status,0,c
  2351  002FC0  0606               	decf	(strncmp@n+1)^0,f,c
  2352  002FC2  2805               	incf	strncmp@n^0,w,c
  2353  002FC4  E106               	bnz	u4301
  2354  002FC6  2806               	incf	(strncmp@n+1)^0,w,c
  2355  002FC8  A4D8               	btfss	status,2,c
  2356  002FCA  EFE9  F017         	goto	u4301
  2357  002FCE  EFEB  F017         	goto	u4300
  2358  002FD2                     u4301:
  2359  002FD2  EFF8  F017         	goto	l3731
  2360  002FD6                     u4300:
  2361  002FD6  0E00               	movlw	0
  2362  002FD8  6E02               	movwf	(?_strncmp+1)^0,c
  2363  002FDA  0E00               	movlw	0
  2364  002FDC  6E01               	movwf	?_strncmp^0,c
  2365  002FDE  EF40  F018         	goto	l1059
  2366  002FE2                     l3729:
  2367  002FE2  4A08               	infsnz	strncmp@l^0,f,c
  2368  002FE4  2A09               	incf	(strncmp@l+1)^0,f,c
  2369  002FE6  4A0A               	infsnz	strncmp@r^0,f,c
  2370  002FE8  2A0B               	incf	(strncmp@r+1)^0,f,c
  2371  002FEA  0605               	decf	strncmp@n^0,f,c
  2372  002FEC  A0D8               	btfss	status,0,c
  2373  002FEE  0606               	decf	(strncmp@n+1)^0,f,c
  2374  002FF0                     l3731:
  2375  002FF0  C008  FFD9         	movff	strncmp@l,fsr2l
  2376  002FF4  C009  FFDA         	movff	strncmp@l+1,fsr2h
  2377  002FF8  50DF               	movf	indf2,w,c
  2378  002FFA  B4D8               	btfsc	status,2,c
  2379  002FFC  EF02  F018         	goto	u4311
  2380  003000  EF04  F018         	goto	u4310
  2381  003004                     u4311:
  2382  003004  EF2F  F018         	goto	l3739
  2383  003008                     u4310:
  2384  003008  C00A  FFF6         	movff	strncmp@r,tblptrl
  2385  00300C  C00B  FFF7         	movff	strncmp@r+1,tblptrh
  2386  003010                     	if	0	;tblptru may be non-zero
  2387  003010                     	endif
  2388  003010                     	if	0	;tblptru may be non-zero
  2389  003010                     	endif
  2390  003010  0008               	tblrd		*
  2391  003012  50F5               	movf	tablat,w,c
  2392  003014  0900               	iorlw	0
  2393  003016  B4D8               	btfsc	status,2,c
  2394  003018  EF10  F018         	goto	u4321
  2395  00301C  EF12  F018         	goto	u4320
  2396  003020                     u4321:
  2397  003020  EF2F  F018         	goto	l3739
  2398  003024                     u4320:
  2399  003024  5005               	movf	strncmp@n^0,w,c
  2400  003026  1006               	iorwf	(strncmp@n+1)^0,w,c
  2401  003028  B4D8               	btfsc	status,2,c
  2402  00302A  EF19  F018         	goto	u4331
  2403  00302E  EF1B  F018         	goto	u4330
  2404  003032                     u4331:
  2405  003032  EF2F  F018         	goto	l3739
  2406  003036                     u4330:
  2407  003036  C008  FFD9         	movff	strncmp@l,fsr2l
  2408  00303A  C009  FFDA         	movff	strncmp@l+1,fsr2h
  2409  00303E  50DF               	movf	indf2,w,c
  2410  003040  6E07               	movwf	??_strncmp^0,c
  2411  003042  C00A  FFF6         	movff	strncmp@r,tblptrl
  2412  003046  C00B  FFF7         	movff	strncmp@r+1,tblptrh
  2413  00304A                     	if	0	;tblptru may be non-zero
  2414  00304A                     	endif
  2415  00304A                     	if	0	;tblptru may be non-zero
  2416  00304A                     	endif
  2417  00304A  0008               	tblrd		*
  2418  00304C  50F5               	movf	tablat,w,c
  2419  00304E  1807               	xorwf	??_strncmp^0,w,c
  2420  003050  B4D8               	btfsc	status,2,c
  2421  003052  EF2D  F018         	goto	u4341
  2422  003056  EF2F  F018         	goto	u4340
  2423  00305A                     u4341:
  2424  00305A  EFF1  F017         	goto	l3729
  2425  00305E                     u4340:
  2426  00305E                     l3739:
  2427  00305E  C008  FFD9         	movff	strncmp@l,fsr2l
  2428  003062  C009  FFDA         	movff	strncmp@l+1,fsr2h
  2429  003066  50DF               	movf	indf2,w,c
  2430  003068  6E07               	movwf	??_strncmp^0,c
  2431  00306A  C00A  FFF6         	movff	strncmp@r,tblptrl
  2432  00306E  C00B  FFF7         	movff	strncmp@r+1,tblptrh
  2433  003072                     	if	0	;tblptru may be non-zero
  2434  003072                     	endif
  2435  003072                     	if	0	;tblptru may be non-zero
  2436  003072                     	endif
  2437  003072  0008               	tblrd		*
  2438  003074  50F5               	movf	tablat,w,c
  2439  003076  5C07               	subwf	??_strncmp^0,w,c
  2440  003078  6E01               	movwf	?_strncmp^0,c
  2441  00307A  6A02               	clrf	(?_strncmp+1)^0,c
  2442  00307C  A0D8               	btfss	status,0,c
  2443  00307E  0602               	decf	(?_strncmp+1)^0,f,c
  2444  003080                     l1059:
  2445  003080  0012               	return		;funcret
  2446  003082                     __end_of_strncmp:
  2447                           	callstack 0
  2448                           
  2449 ;; *************** function _efgtoa *****************
  2450 ;; Defined at:
  2451 ;;		line 332 in file "C:\Program Files\Microchip\xc8\v2.36\pic\sources\c99\common\doprnt.c"
  2452 ;; Parameters:    Size  Location     Type
  2453 ;;  fp              2   63[COMRAM] PTR struct _IO_FILE
  2454 ;;		 -> sprintf@f(11), 
  2455 ;;  f               4   65[COMRAM] PTR struct _IO_FILE
  2456 ;;  c               1   69[COMRAM] unsigned char 
  2457 ;; Auto vars:     Size  Location     Type
  2458 ;;  u               4   46[BANK0 ] unsigned char 
  2459 ;;  g               4   38[BANK0 ] unsigned char 
  2460 ;;  l               4   32[BANK0 ] unsigned char 
  2461 ;;  h               4   28[BANK0 ] unsigned char 
  2462 ;;  ou              4   14[BANK0 ] unsigned char 
  2463 ;;  n               2   44[BANK0 ] int 
  2464 ;;  e               2   42[BANK0 ] int 
  2465 ;;  i               2   36[BANK0 ] int 
  2466 ;;  w               2   24[BANK0 ] int 
  2467 ;;  p               2   22[BANK0 ] int 
  2468 ;;  sign            2   20[BANK0 ] int 
  2469 ;;  d               2   18[BANK0 ] int 
  2470 ;;  m               2   12[BANK0 ] int 
  2471 ;;  ne              2   10[BANK0 ] int 
  2472 ;;  pp              2    8[BANK0 ] int 
  2473 ;;  t               2    6[BANK0 ] int 
  2474 ;;  mode            1   27[BANK0 ] unsigned char 
  2475 ;;  nmode           1   26[BANK0 ] unsigned char 
  2476 ;; Return value:  Size  Location     Type
  2477 ;;                  2   63[COMRAM] int 
  2478 ;; Registers used:
  2479 ;;		wreg, fsr1l, fsr1h, fsr2l, fsr2h, status,2, status,0, tblptrl, tblptrh, tblptru, prodl, prodh, cstack
  2480 ;; Tracked objects:
  2481 ;;		On entry : 0/0
  2482 ;;		On exit  : 0/0
  2483 ;;		Unchanged: 0/0
  2484 ;; Data sizes:     COMRAM   BANK0   BANK1   BANK2   BANK3   BANK4   BANK5   BANK6   BANK7
  2485 ;;      Params:         7       0       0       0       0       0       0       0       0
  2486 ;;      Locals:         0      50       0       0       0       0       0       0       0
  2487 ;;      Temps:          5       0       0       0       0       0       0       0       0
  2488 ;;      Totals:        12      50       0       0       0       0       0       0       0
  2489 ;;Total ram usage:       62 bytes
  2490 ;; Hardware stack levels used: 1
  2491 ;; Hardware stack levels required when called: 4
  2492 ;; This function calls:
  2493 ;;		___awdiv
  2494 ;;		___awmod
  2495 ;;		___fladd
  2496 ;;		___fldiv
  2497 ;;		___fleq
  2498 ;;		___flge
  2499 ;;		___flmul
  2500 ;;		___flneg
  2501 ;;		___flsub
  2502 ;;		___fltol
  2503 ;;		___fpclassifyf
  2504 ;;		_floorf
  2505 ;;		_isupper
  2506 ;;		_pad
  2507 ;;		_strcpy
  2508 ;;		_tolower
  2509 ;; This function is called by:
  2510 ;;		_vfpfcnvrt
  2511 ;; This function uses a non-reentrant model
  2512 ;;
  2513                           
  2514                           	psect	text8
  2515  00085E                     __ptext8:
  2516                           	callstack 0
  2517  00085E                     _efgtoa:
  2518                           	callstack 22
  2519  00085E                     
  2520                           ;C:\Program Files\Microchip\xc8\v2.36\pic\sources\c99\common\doprnt.c: 332: static int e
      +                          fgtoa(FILE *fp, long double f, char c);C:\Program Files\Microchip\xc8\v2.36\pic\sources\
      +                          c99\common\doprnt.c: 333: {;C:\Program Files\Microchip\xc8\v2.36\pic\sources\c99\common\
      +                          doprnt.c: 334:     char mode, nmode;;C:\Program Files\Microchip\xc8\v2.36\pic\sources\c9
      +                          9\common\doprnt.c: 335:     int d, e, i, m, n, ne, p, pp, sign, t, w;;C:\Program Files\M
      +                          icrochip\xc8\v2.36\pic\sources\c99\common\doprnt.c: 336:     long double g, h, l, ou, u;
  2521  00085E  0E00               	movlw	0
  2522  000860  0100               	movlb	0	; () banked
  2523  000862  6F75               	movwf	(efgtoa@sign+1)& (0+255),b
  2524  000864  0E00               	movlw	0
  2525  000866  6F74               	movwf	efgtoa@sign& (0+255),b
  2526  000868                     
  2527                           ; BSR set to: 0
  2528                           ;C:\Program Files\Microchip\xc8\v2.36\pic\sources\c99\common\doprnt.c: 340:     g = f;
  2529  000868  C042  F086         	movff	efgtoa@f,efgtoa@g
  2530  00086C  C043  F087         	movff	efgtoa@f+1,efgtoa@g+1
  2531  000870  C044  F088         	movff	efgtoa@f+2,efgtoa@g+2
  2532  000874  C045  F089         	movff	efgtoa@f+3,efgtoa@g+3
  2533  000878                     
  2534                           ; BSR set to: 0
  2535                           ;C:\Program Files\Microchip\xc8\v2.36\pic\sources\c99\common\doprnt.c: 341:     if (g < 
      +                          0.0) {
  2536  000878  BF89               	btfsc	(efgtoa@g+3)& (0+255),7,b
  2537  00087A  EF43  F004         	goto	u3780
  2538  00087E  EF41  F004         	goto	u3781
  2539  000882                     u3781:
  2540  000882  EF59  F004         	goto	l3395
  2541  000886                     u3780:
  2542  000886                     
  2543                           ; BSR set to: 0
  2544                           ;C:\Program Files\Microchip\xc8\v2.36\pic\sources\c99\common\doprnt.c: 342:         sign
      +                           = 1;
  2545  000886  0E00               	movlw	0
  2546  000888  6F75               	movwf	(efgtoa@sign+1)& (0+255),b
  2547  00088A  0E01               	movlw	1
  2548  00088C  6F74               	movwf	efgtoa@sign& (0+255),b
  2549  00088E                     
  2550                           ; BSR set to: 0
  2551                           ;C:\Program Files\Microchip\xc8\v2.36\pic\sources\c99\common\doprnt.c: 343:         g = 
      +                          -g;
  2552  00088E  C086  F001         	movff	efgtoa@g,___flneg@f1
  2553  000892  C087  F002         	movff	efgtoa@g+1,___flneg@f1+1
  2554  000896  C088  F003         	movff	efgtoa@g+2,___flneg@f1+2
  2555  00089A  C089  F004         	movff	efgtoa@g+3,___flneg@f1+3
  2556  00089E  EC68  F01C         	call	___flneg	;wreg free
  2557  0008A2  C001  F086         	movff	?___flneg,efgtoa@g
  2558  0008A6  C002  F087         	movff	?___flneg+1,efgtoa@g+1
  2559  0008AA  C003  F088         	movff	?___flneg+2,efgtoa@g+2
  2560  0008AE  C004  F089         	movff	?___flneg+3,efgtoa@g+3
  2561  0008B2                     l3395:
  2562                           
  2563                           ;C:\Program Files\Microchip\xc8\v2.36\pic\sources\c99\common\doprnt.c: 347:     n = 0;
  2564  0008B2  0E00               	movlw	0
  2565  0008B4  0100               	movlb	0	; () banked
  2566  0008B6  6F8D               	movwf	(efgtoa@n+1)& (0+255),b
  2567  0008B8  0E00               	movlw	0
  2568  0008BA  6F8C               	movwf	efgtoa@n& (0+255),b
  2569  0008BC                     
  2570                           ; BSR set to: 0
  2571                           ;C:\Program Files\Microchip\xc8\v2.36\pic\sources\c99\common\doprnt.c: 348:     w = widt
      +                          h;
  2572  0008BC  C0CD  F078         	movff	_width,efgtoa@w
  2573  0008C0  C0CE  F079         	movff	_width+1,efgtoa@w+1
  2574  0008C4                     
  2575                           ; BSR set to: 0
  2576                           ;C:\Program Files\Microchip\xc8\v2.36\pic\sources\c99\common\doprnt.c: 349:     if (sign
      +                           || (flags & (1 << 2))) {
  2577  0008C4  5174               	movf	efgtoa@sign& (0+255),w,b
  2578  0008C6  1175               	iorwf	(efgtoa@sign+1)& (0+255),w,b
  2579  0008C8  A4D8               	btfss	status,2,c
  2580  0008CA  EF69  F004         	goto	u3791
  2581  0008CE  EF6B  F004         	goto	u3790
  2582  0008D2                     u3791:
  2583  0008D2  EF72  F004         	goto	l3403
  2584  0008D6                     u3790:
  2585  0008D6                     
  2586                           ; BSR set to: 0
  2587  0008D6  A5D1               	btfss	_flags& (0+255),2,b
  2588  0008D8  EF70  F004         	goto	u3801
  2589  0008DC  EF72  F004         	goto	u3800
  2590  0008E0                     u3801:
  2591  0008E0  EF8C  F004         	goto	l3415
  2592  0008E4                     u3800:
  2593  0008E4                     l3403:
  2594                           
  2595                           ; BSR set to: 0
  2596                           ;C:\Program Files\Microchip\xc8\v2.36\pic\sources\c99\common\doprnt.c: 350:         dbuf
      +                          [n] = sign ? '-' : '+';
  2597  0008E4  5174               	movf	efgtoa@sign& (0+255),w,b
  2598  0008E6  1175               	iorwf	(efgtoa@sign+1)& (0+255),w,b
  2599  0008E8  A4D8               	btfss	status,2,c
  2600  0008EA  EF79  F004         	goto	u3811
  2601  0008EE  EF7B  F004         	goto	u3810
  2602  0008F2                     u3811:
  2603  0008F2  EF81  F004         	goto	l3407
  2604  0008F6                     u3810:
  2605  0008F6                     
  2606                           ; BSR set to: 0
  2607  0008F6  0E00               	movlw	0
  2608  0008F8  6F61               	movwf	(_efgtoa$1050+1)& (0+255),b
  2609  0008FA  0E2B               	movlw	43
  2610  0008FC  6F60               	movwf	_efgtoa$1050& (0+255),b
  2611  0008FE  EF85  F004         	goto	l3409
  2612  000902                     l3407:
  2613                           
  2614                           ; BSR set to: 0
  2615  000902  0E00               	movlw	0
  2616  000904  6F61               	movwf	(_efgtoa$1050+1)& (0+255),b
  2617  000906  0E2D               	movlw	45
  2618  000908  6F60               	movwf	_efgtoa$1050& (0+255),b
  2619  00090A                     l3409:
  2620                           
  2621                           ; BSR set to: 0
  2622  00090A  C060  F100         	movff	_efgtoa$1050,_dbuf
  2623  00090E                     
  2624                           ; BSR set to: 0
  2625                           ;C:\Program Files\Microchip\xc8\v2.36\pic\sources\c99\common\doprnt.c: 351:         ++n;
  2626  00090E  4B8C               	infsnz	efgtoa@n& (0+255),f,b
  2627  000910  2B8D               	incf	(efgtoa@n+1)& (0+255),f,b
  2628  000912                     
  2629                           ; BSR set to: 0
  2630                           ;C:\Program Files\Microchip\xc8\v2.36\pic\sources\c99\common\doprnt.c: 352:         --w;
  2631  000912  0778               	decf	efgtoa@w& (0+255),f,b
  2632  000914  A0D8               	btfss	status,0,c
  2633  000916  0779               	decf	(efgtoa@w+1)& (0+255),f,b
  2634  000918                     l3415:
  2635                           
  2636                           ; BSR set to: 0
  2637                           ;C:\Program Files\Microchip\xc8\v2.36\pic\sources\c99\common\doprnt.c: 356:     if (( __
      +                          fpclassifyf(g) == 1 )) {
  2638  000918  C086  F001         	movff	efgtoa@g,___fpclassifyf@x
  2639  00091C  C087  F002         	movff	efgtoa@g+1,___fpclassifyf@x+1
  2640  000920  C088  F003         	movff	efgtoa@g+2,___fpclassifyf@x+2
  2641  000924  C089  F004         	movff	efgtoa@g+3,___fpclassifyf@x+3
  2642  000928  ECDD  F016         	call	___fpclassifyf	;wreg free
  2643  00092C  0401               	decf	?___fpclassifyf^0,w,c
  2644  00092E  1002               	iorwf	(?___fpclassifyf+1)^0,w,c
  2645  000930  A4D8               	btfss	status,2,c
  2646  000932  EF9D  F004         	goto	u3821
  2647  000936  EF9F  F004         	goto	u3820
  2648  00093A                     u3821:
  2649  00093A  EFEA  F004         	goto	l3433
  2650  00093E                     u3820:
  2651  00093E  0EBF               	movlw	191
  2652  000940  6E47               	movwf	??_efgtoa^0,c
  2653  000942  0EFF               	movlw	255
  2654  000944  6E48               	movwf	(??_efgtoa+1)^0,c
  2655  000946  5046               	movf	efgtoa@c^0,w,c
  2656  000948  6E49               	movwf	(??_efgtoa+2)^0,c
  2657  00094A  6A4A               	clrf	(??_efgtoa+3)^0,c
  2658  00094C  5047               	movf	??_efgtoa^0,w,c
  2659  00094E  2649               	addwf	(??_efgtoa+2)^0,f,c
  2660  000950  5048               	movf	(??_efgtoa+1)^0,w,c
  2661  000952  224A               	addwfc	(??_efgtoa+3)^0,f,c
  2662  000954  504A               	movf	(??_efgtoa+3)^0,w,c
  2663  000956  E107               	bnz	u3831
  2664  000958  0E1A               	movlw	26
  2665  00095A  5C49               	subwf	(??_efgtoa+2)^0,w,c
  2666  00095C  B0D8               	btfsc	status,0,c
  2667  00095E  EFB3  F004         	goto	u3831
  2668  000962  EFB5  F004         	goto	u3830
  2669  000966                     u3831:
  2670  000966  EFC4  F004         	goto	l3425
  2671  00096A                     u3830:
  2672  00096A                     
  2673                           ;C:\Program Files\Microchip\xc8\v2.36\pic\sources\c99\common\doprnt.c: 358:             
      +                          strcpy(&dbuf[n], "INF");
  2674  00096A  0E00               	movlw	low _dbuf
  2675  00096C  0100               	movlb	0	; () banked
  2676  00096E  258C               	addwf	efgtoa@n& (0+255),w,b
  2677  000970  6E01               	movwf	strcpy@dest^0,c
  2678  000972  0E01               	movlw	high _dbuf
  2679  000974  218D               	addwfc	(efgtoa@n+1)& (0+255),w,b
  2680  000976  6E02               	movwf	(strcpy@dest+1)^0,c
  2681  000978  0E49               	movlw	low STR_8
  2682  00097A  6E03               	movwf	strcpy@src^0,c
  2683  00097C  0E08               	movlw	high STR_8
  2684  00097E  6E04               	movwf	(strcpy@src+1)^0,c
  2685  000980  EC24  F01B         	call	_strcpy	;wreg free
  2686                           
  2687                           ;C:\Program Files\Microchip\xc8\v2.36\pic\sources\c99\common\doprnt.c: 359:         } el
      +                          se {
  2688  000984  EFD1  F004         	goto	l3427
  2689  000988                     l3425:
  2690                           
  2691                           ;C:\Program Files\Microchip\xc8\v2.36\pic\sources\c99\common\doprnt.c: 360:             
      +                          strcpy(&dbuf[n], "inf");
  2692  000988  0E00               	movlw	low _dbuf
  2693  00098A  0100               	movlb	0	; () banked
  2694  00098C  258C               	addwf	efgtoa@n& (0+255),w,b
  2695  00098E  6E01               	movwf	strcpy@dest^0,c
  2696  000990  0E01               	movlw	high _dbuf
  2697  000992  218D               	addwfc	(efgtoa@n+1)& (0+255),w,b
  2698  000994  6E02               	movwf	(strcpy@dest+1)^0,c
  2699  000996  0E51               	movlw	low STR_9
  2700  000998  6E03               	movwf	strcpy@src^0,c
  2701  00099A  0E08               	movlw	high STR_9
  2702  00099C  6E04               	movwf	(strcpy@src+1)^0,c
  2703  00099E  EC24  F01B         	call	_strcpy	;wreg free
  2704  0009A2                     l3427:
  2705                           
  2706                           ;C:\Program Files\Microchip\xc8\v2.36\pic\sources\c99\common\doprnt.c: 362:         w -=
      +                           ((sizeof("inf")/sizeof("inf"[0]))-1);
  2707  0009A2  0100               	movlb	0	; () banked
  2708  0009A4  0EFD               	movlw	253
  2709  0009A6  2778               	addwf	efgtoa@w& (0+255),f,b
  2710  0009A8  0EFF               	movlw	255
  2711  0009AA  2379               	addwfc	(efgtoa@w+1)& (0+255),f,b
  2712  0009AC                     l3429:
  2713                           
  2714                           ;C:\Program Files\Microchip\xc8\v2.36\pic\sources\c99\common\doprnt.c: 363:         retu
      +                          rn pad(fp, &dbuf[0], w);
  2715  0009AC  C040  F011         	movff	efgtoa@fp,pad@fp
  2716  0009B0  C041  F012         	movff	efgtoa@fp+1,pad@fp+1
  2717  0009B4  0E00               	movlw	low _dbuf
  2718  0009B6  6E13               	movwf	pad@buf^0,c
  2719  0009B8  0E01               	movlw	high _dbuf
  2720  0009BA  6E14               	movwf	(pad@buf+1)^0,c
  2721  0009BC  C078  F015         	movff	efgtoa@w,pad@p
  2722  0009C0  C079  F016         	movff	efgtoa@w+1,pad@p+1
  2723  0009C4  ECA6  F018         	call	_pad	;wreg free
  2724  0009C8  C011  F040         	movff	?_pad,?_efgtoa
  2725  0009CC  C012  F041         	movff	?_pad+1,?_efgtoa+1
  2726  0009D0  EF35  F00A         	goto	l853
  2727  0009D4                     l3433:
  2728                           
  2729                           ;C:\Program Files\Microchip\xc8\v2.36\pic\sources\c99\common\doprnt.c: 365:     if (( __
      +                          fpclassifyf(g) == 0 )) {
  2730  0009D4  C086  F001         	movff	efgtoa@g,___fpclassifyf@x
  2731  0009D8  C087  F002         	movff	efgtoa@g+1,___fpclassifyf@x+1
  2732  0009DC  C088  F003         	movff	efgtoa@g+2,___fpclassifyf@x+2
  2733  0009E0  C089  F004         	movff	efgtoa@g+3,___fpclassifyf@x+3
  2734  0009E4  ECDD  F016         	call	___fpclassifyf	;wreg free
  2735  0009E8  5001               	movf	?___fpclassifyf^0,w,c
  2736  0009EA  1002               	iorwf	(?___fpclassifyf+1)^0,w,c
  2737  0009EC  A4D8               	btfss	status,2,c
  2738  0009EE  EFFB  F004         	goto	u3841
  2739  0009F2  EFFD  F004         	goto	u3840
  2740  0009F6                     u3841:
  2741  0009F6  EF31  F005         	goto	l3451
  2742  0009FA                     u3840:
  2743  0009FA  0EBF               	movlw	191
  2744  0009FC  6E47               	movwf	??_efgtoa^0,c
  2745  0009FE  0EFF               	movlw	255
  2746  000A00  6E48               	movwf	(??_efgtoa+1)^0,c
  2747  000A02  5046               	movf	efgtoa@c^0,w,c
  2748  000A04  6E49               	movwf	(??_efgtoa+2)^0,c
  2749  000A06  6A4A               	clrf	(??_efgtoa+3)^0,c
  2750  000A08  5047               	movf	??_efgtoa^0,w,c
  2751  000A0A  2649               	addwf	(??_efgtoa+2)^0,f,c
  2752  000A0C  5048               	movf	(??_efgtoa+1)^0,w,c
  2753  000A0E  224A               	addwfc	(??_efgtoa+3)^0,f,c
  2754  000A10  504A               	movf	(??_efgtoa+3)^0,w,c
  2755  000A12  E107               	bnz	u3851
  2756  000A14  0E1A               	movlw	26
  2757  000A16  5C49               	subwf	(??_efgtoa+2)^0,w,c
  2758  000A18  B0D8               	btfsc	status,0,c
  2759  000A1A  EF11  F005         	goto	u3851
  2760  000A1E  EF13  F005         	goto	u3850
  2761  000A22                     u3851:
  2762  000A22  EF22  F005         	goto	l3443
  2763  000A26                     u3850:
  2764  000A26                     
  2765                           ;C:\Program Files\Microchip\xc8\v2.36\pic\sources\c99\common\doprnt.c: 367:             
      +                          strcpy(&dbuf[n], "NAN");
  2766  000A26  0E00               	movlw	low _dbuf
  2767  000A28  0100               	movlb	0	; () banked
  2768  000A2A  258C               	addwf	efgtoa@n& (0+255),w,b
  2769  000A2C  6E01               	movwf	strcpy@dest^0,c
  2770  000A2E  0E01               	movlw	high _dbuf
  2771  000A30  218D               	addwfc	(efgtoa@n+1)& (0+255),w,b
  2772  000A32  6E02               	movwf	(strcpy@dest+1)^0,c
  2773  000A34  0E4D               	movlw	low STR_12
  2774  000A36  6E03               	movwf	strcpy@src^0,c
  2775  000A38  0E08               	movlw	high STR_12
  2776  000A3A  6E04               	movwf	(strcpy@src+1)^0,c
  2777  000A3C  EC24  F01B         	call	_strcpy	;wreg free
  2778                           
  2779                           ;C:\Program Files\Microchip\xc8\v2.36\pic\sources\c99\common\doprnt.c: 368:         } el
      +                          se {
  2780  000A40  EFD1  F004         	goto	l3427
  2781  000A44                     l3443:
  2782                           
  2783                           ;C:\Program Files\Microchip\xc8\v2.36\pic\sources\c99\common\doprnt.c: 369:             
      +                          strcpy(&dbuf[n], "nan");
  2784  000A44  0E00               	movlw	low _dbuf
  2785  000A46  0100               	movlb	0	; () banked
  2786  000A48  258C               	addwf	efgtoa@n& (0+255),w,b
  2787  000A4A  6E01               	movwf	strcpy@dest^0,c
  2788  000A4C  0E01               	movlw	high _dbuf
  2789  000A4E  218D               	addwfc	(efgtoa@n+1)& (0+255),w,b
  2790  000A50  6E02               	movwf	(strcpy@dest+1)^0,c
  2791  000A52  0E55               	movlw	low STR_13
  2792  000A54  6E03               	movwf	strcpy@src^0,c
  2793  000A56  0E08               	movlw	high STR_13
  2794  000A58  6E04               	movwf	(strcpy@src+1)^0,c
  2795  000A5A  EC24  F01B         	call	_strcpy	;wreg free
  2796  000A5E  EFD1  F004         	goto	l3427
  2797  000A62                     l3451:
  2798                           
  2799                           ;C:\Program Files\Microchip\xc8\v2.36\pic\sources\c99\common\doprnt.c: 376:     u = 1.0;
  2800  000A62  0E00               	movlw	0
  2801  000A64  0100               	movlb	0	; () banked
  2802  000A66  6F8E               	movwf	efgtoa@u& (0+255),b
  2803  000A68  0E00               	movlw	0
  2804  000A6A  6F8F               	movwf	(efgtoa@u+1)& (0+255),b
  2805  000A6C  0E80               	movlw	128
  2806  000A6E  6F90               	movwf	(efgtoa@u+2)& (0+255),b
  2807  000A70  0E3F               	movlw	63
  2808  000A72  6F91               	movwf	(efgtoa@u+3)& (0+255),b
  2809                           
  2810                           ;C:\Program Files\Microchip\xc8\v2.36\pic\sources\c99\common\doprnt.c: 377:     e = 0;
  2811  000A74  0E00               	movlw	0
  2812  000A76  6F8B               	movwf	(efgtoa@e+1)& (0+255),b
  2813  000A78  0E00               	movlw	0
  2814  000A7A  6F8A               	movwf	efgtoa@e& (0+255),b
  2815  000A7C                     
  2816                           ; BSR set to: 0
  2817                           ;C:\Program Files\Microchip\xc8\v2.36\pic\sources\c99\common\doprnt.c: 378:     if (!(g 
      +                          == 0.0)) {
  2818  000A7C  C086  F001         	movff	efgtoa@g,___fleq@ff1
  2819  000A80  C087  F002         	movff	efgtoa@g+1,___fleq@ff1+1
  2820  000A84  C088  F003         	movff	efgtoa@g+2,___fleq@ff1+2
  2821  000A88  C089  F004         	movff	efgtoa@g+3,___fleq@ff1+3
  2822  000A8C  0E00               	movlw	0
  2823  000A8E  6E05               	movwf	___fleq@ff2^0,c
  2824  000A90  0E00               	movlw	0
  2825  000A92  6E06               	movwf	(___fleq@ff2+1)^0,c
  2826  000A94  0E00               	movlw	0
  2827  000A96  6E07               	movwf	(___fleq@ff2+2)^0,c
  2828  000A98  0E00               	movlw	0
  2829  000A9A  6E08               	movwf	(___fleq@ff2+3)^0,c
  2830  000A9C  ECC3  F019         	call	___fleq	;wreg free
  2831  000AA0  B0D8               	btfsc	status,0,c
  2832  000AA2  EF55  F005         	goto	u3861
  2833  000AA6  EF57  F005         	goto	u3860
  2834  000AAA                     u3861:
  2835  000AAA  EFDA  F005         	goto	l3469
  2836  000AAE                     u3860:
  2837  000AAE  EF76  F005         	goto	l3461
  2838  000AB2                     l3457:
  2839                           
  2840                           ;C:\Program Files\Microchip\xc8\v2.36\pic\sources\c99\common\doprnt.c: 380:             
      +                          u = u*10.0;
  2841  000AB2  C08E  F00F         	movff	efgtoa@u,___flmul@b
  2842  000AB6  C08F  F010         	movff	efgtoa@u+1,___flmul@b+1
  2843  000ABA  C090  F011         	movff	efgtoa@u+2,___flmul@b+2
  2844  000ABE  C091  F012         	movff	efgtoa@u+3,___flmul@b+3
  2845  000AC2  0E00               	movlw	0
  2846  000AC4  6E13               	movwf	___flmul@a^0,c
  2847  000AC6  0E00               	movlw	0
  2848  000AC8  6E14               	movwf	(___flmul@a+1)^0,c
  2849  000ACA  0E20               	movlw	32
  2850  000ACC  6E15               	movwf	(___flmul@a+2)^0,c
  2851  000ACE  0E41               	movlw	65
  2852  000AD0  6E16               	movwf	(___flmul@a+3)^0,c
  2853  000AD2  ECAC  F00E         	call	___flmul	;wreg free
  2854  000AD6  C00F  F08E         	movff	?___flmul,efgtoa@u
  2855  000ADA  C010  F08F         	movff	?___flmul+1,efgtoa@u+1
  2856  000ADE  C011  F090         	movff	?___flmul+2,efgtoa@u+2
  2857  000AE2  C012  F091         	movff	?___flmul+3,efgtoa@u+3
  2858  000AE6                     
  2859                           ;C:\Program Files\Microchip\xc8\v2.36\pic\sources\c99\common\doprnt.c: 381:             
      +                          ++e;
  2860  000AE6  0100               	movlb	0	; () banked
  2861  000AE8  4B8A               	infsnz	efgtoa@e& (0+255),f,b
  2862  000AEA  2B8B               	incf	(efgtoa@e+1)& (0+255),f,b
  2863  000AEC                     l3461:
  2864                           
  2865                           ;C:\Program Files\Microchip\xc8\v2.36\pic\sources\c99\common\doprnt.c: 379:         whil
      +                          e (!(g < (u*10.0))) {
  2866  000AEC  C086  F028         	movff	efgtoa@g,___flge@ff1
  2867  000AF0  C087  F029         	movff	efgtoa@g+1,___flge@ff1+1
  2868  000AF4  C088  F02A         	movff	efgtoa@g+2,___flge@ff1+2
  2869  000AF8  C089  F02B         	movff	efgtoa@g+3,___flge@ff1+3
  2870  000AFC  0E00               	movlw	0
  2871  000AFE  6E13               	movwf	___flmul@a^0,c
  2872  000B00  0E00               	movlw	0
  2873  000B02  6E14               	movwf	(___flmul@a+1)^0,c
  2874  000B04  0E20               	movlw	32
  2875  000B06  6E15               	movwf	(___flmul@a+2)^0,c
  2876  000B08  0E41               	movlw	65
  2877  000B0A  6E16               	movwf	(___flmul@a+3)^0,c
  2878  000B0C  C08E  F00F         	movff	efgtoa@u,___flmul@b
  2879  000B10  C08F  F010         	movff	efgtoa@u+1,___flmul@b+1
  2880  000B14  C090  F011         	movff	efgtoa@u+2,___flmul@b+2
  2881  000B18  C091  F012         	movff	efgtoa@u+3,___flmul@b+3
  2882  000B1C  ECAC  F00E         	call	___flmul	;wreg free
  2883  000B20  C00F  F02C         	movff	?___flmul,___flge@ff2
  2884  000B24  C010  F02D         	movff	?___flmul+1,___flge@ff2+1
  2885  000B28  C011  F02E         	movff	?___flmul+2,___flge@ff2+2
  2886  000B2C  C012  F02F         	movff	?___flmul+3,___flge@ff2+3
  2887  000B30  EC5B  F016         	call	___flge	;wreg free
  2888  000B34  B0D8               	btfsc	status,0,c
  2889  000B36  EF9F  F005         	goto	u3871
  2890  000B3A  EFA1  F005         	goto	u3870
  2891  000B3E                     u3871:
  2892  000B3E  EF59  F005         	goto	l3457
  2893  000B42                     u3870:
  2894  000B42  EFC1  F005         	goto	l3467
  2895  000B46                     l3463:
  2896                           
  2897                           ;C:\Program Files\Microchip\xc8\v2.36\pic\sources\c99\common\doprnt.c: 384:             
      +                          u = u/10.0;
  2898  000B46  C08E  F001         	movff	efgtoa@u,___fldiv@b
  2899  000B4A  C08F  F002         	movff	efgtoa@u+1,___fldiv@b+1
  2900  000B4E  C090  F003         	movff	efgtoa@u+2,___fldiv@b+2
  2901  000B52  C091  F004         	movff	efgtoa@u+3,___fldiv@b+3
  2902  000B56  0E00               	movlw	0
  2903  000B58  6E05               	movwf	___fldiv@a^0,c
  2904  000B5A  0E00               	movlw	0
  2905  000B5C  6E06               	movwf	(___fldiv@a+1)^0,c
  2906  000B5E  0E20               	movlw	32
  2907  000B60  6E07               	movwf	(___fldiv@a+2)^0,c
  2908  000B62  0E41               	movlw	65
  2909  000B64  6E08               	movwf	(___fldiv@a+3)^0,c
  2910  000B66  ECC1  F010         	call	___fldiv	;wreg free
  2911  000B6A  C001  F08E         	movff	?___fldiv,efgtoa@u
  2912  000B6E  C002  F08F         	movff	?___fldiv+1,efgtoa@u+1
  2913  000B72  C003  F090         	movff	?___fldiv+2,efgtoa@u+2
  2914  000B76  C004  F091         	movff	?___fldiv+3,efgtoa@u+3
  2915  000B7A                     
  2916                           ;C:\Program Files\Microchip\xc8\v2.36\pic\sources\c99\common\doprnt.c: 385:             
      +                          --e;
  2917  000B7A  0100               	movlb	0	; () banked
  2918  000B7C  078A               	decf	efgtoa@e& (0+255),f,b
  2919  000B7E  A0D8               	btfss	status,0,c
  2920  000B80  078B               	decf	(efgtoa@e+1)& (0+255),f,b
  2921  000B82                     l3467:
  2922                           
  2923                           ;C:\Program Files\Microchip\xc8\v2.36\pic\sources\c99\common\doprnt.c: 383:         whil
      +                          e (g < u) {
  2924  000B82  C086  F028         	movff	efgtoa@g,___flge@ff1
  2925  000B86  C087  F029         	movff	efgtoa@g+1,___flge@ff1+1
  2926  000B8A  C088  F02A         	movff	efgtoa@g+2,___flge@ff1+2
  2927  000B8E  C089  F02B         	movff	efgtoa@g+3,___flge@ff1+3
  2928  000B92  C08E  F02C         	movff	efgtoa@u,___flge@ff2
  2929  000B96  C08F  F02D         	movff	efgtoa@u+1,___flge@ff2+1
  2930  000B9A  C090  F02E         	movff	efgtoa@u+2,___flge@ff2+2
  2931  000B9E  C091  F02F         	movff	efgtoa@u+3,___flge@ff2+3
  2932  000BA2  EC5B  F016         	call	___flge	;wreg free
  2933  000BA6  A0D8               	btfss	status,0,c
  2934  000BA8  EFD8  F005         	goto	u3881
  2935  000BAC  EFDA  F005         	goto	u3880
  2936  000BB0                     u3881:
  2937  000BB0  EFA3  F005         	goto	l3463
  2938  000BB4                     u3880:
  2939  000BB4                     l3469:
  2940                           
  2941                           ;C:\Program Files\Microchip\xc8\v2.36\pic\sources\c99\common\doprnt.c: 390:     mode = (
      +                          char)tolower((int)c);
  2942  000BB4  C046  F007         	movff	efgtoa@c,tolower@c
  2943  000BB8  6A08               	clrf	(tolower@c+1)^0,c
  2944  000BBA  ECA4  F01B         	call	_tolower	;wreg free
  2945  000BBE  5007               	movf	?_tolower^0,w,c
  2946  000BC0  0100               	movlb	0	; () banked
  2947  000BC2  6F7B               	movwf	efgtoa@mode& (0+255),b
  2948  000BC4                     
  2949                           ; BSR set to: 0
  2950                           ;C:\Program Files\Microchip\xc8\v2.36\pic\sources\c99\common\doprnt.c: 391:     nmode = 
      +                          mode;
  2951  000BC4  C07B  F07A         	movff	efgtoa@mode,efgtoa@nmode
  2952  000BC8                     
  2953                           ; BSR set to: 0
  2954                           ;C:\Program Files\Microchip\xc8\v2.36\pic\sources\c99\common\doprnt.c: 392:     if (mode
      +                           == 'g') {
  2955  000BC8  0E67               	movlw	103
  2956  000BCA  197B               	xorwf	efgtoa@mode& (0+255),w,b
  2957  000BCC  A4D8               	btfss	status,2,c
  2958  000BCE  EFEB  F005         	goto	u3891
  2959  000BD2  EFED  F005         	goto	u3890
  2960  000BD6                     u3891:
  2961  000BD6  EF13  F006         	goto	l3483
  2962  000BDA                     u3890:
  2963  000BDA                     
  2964                           ; BSR set to: 0
  2965                           ;C:\Program Files\Microchip\xc8\v2.36\pic\sources\c99\common\doprnt.c: 393:   if (prec =
      +                          = 0) {
  2966  000BDA  51CF               	movf	_prec& (0+255),w,b
  2967  000BDC  11D0               	iorwf	(_prec+1)& (0+255),w,b
  2968  000BDE  A4D8               	btfss	status,2,c
  2969  000BE0  EFF4  F005         	goto	u3901
  2970  000BE4  EFF6  F005         	goto	u3900
  2971  000BE8                     u3901:
  2972  000BE8  EFFA  F005         	goto	l3479
  2973  000BEC                     u3900:
  2974  000BEC                     
  2975                           ; BSR set to: 0
  2976                           ;C:\Program Files\Microchip\xc8\v2.36\pic\sources\c99\common\doprnt.c: 394:    prec = 1;
  2977  000BEC  0E00               	movlw	0
  2978  000BEE  6FD0               	movwf	(_prec+1)& (0+255),b
  2979  000BF0  0E01               	movlw	1
  2980  000BF2  6FCF               	movwf	_prec& (0+255),b
  2981  000BF4                     l3479:
  2982                           
  2983                           ; BSR set to: 0
  2984                           ;C:\Program Files\Microchip\xc8\v2.36\pic\sources\c99\common\doprnt.c: 396:         p = 
      +                          (0 < prec) ? prec : 6;
  2985  000BF4  BFD0               	btfsc	(_prec+1)& (0+255),7,b
  2986  000BF6  EF07  F006         	goto	u3910
  2987  000BFA  51D0               	movf	(_prec+1)& (0+255),w,b
  2988  000BFC  E106               	bnz	u3911
  2989  000BFE  05CF               	decf	_prec& (0+255),w,b
  2990  000C00  B0D8               	btfsc	status,0,c
  2991  000C02  EF05  F006         	goto	u3911
  2992  000C06  EF07  F006         	goto	u3910
  2993  000C0A                     u3911:
  2994  000C0A  EF0D  F006         	goto	l869
  2995  000C0E                     u3910:
  2996  000C0E                     l3481:
  2997                           
  2998                           ; BSR set to: 0
  2999  000C0E  0E00               	movlw	0
  3000  000C10  6F77               	movwf	(efgtoa@p+1)& (0+255),b
  3001  000C12  0E06               	movlw	6
  3002  000C14  6F76               	movwf	efgtoa@p& (0+255),b
  3003  000C16  EF1C  F006         	goto	l3489
  3004  000C1A                     l869:
  3005                           
  3006                           ; BSR set to: 0
  3007  000C1A  C0CF  F076         	movff	_prec,efgtoa@p
  3008  000C1E  C0D0  F077         	movff	_prec+1,efgtoa@p+1
  3009  000C22  EF1C  F006         	goto	l3489
  3010  000C26                     l3483:
  3011                           
  3012                           ; BSR set to: 0
  3013                           ;C:\Program Files\Microchip\xc8\v2.36\pic\sources\c99\common\doprnt.c: 398:         p = 
      +                          (prec < 0) ? 6 : prec;
  3014  000C26  BFD0               	btfsc	(_prec+1)& (0+255),7,b
  3015  000C28  EF18  F006         	goto	u3921
  3016  000C2C  EF1A  F006         	goto	u3920
  3017  000C30                     u3921:
  3018  000C30  EF07  F006         	goto	l3481
  3019  000C34                     u3920:
  3020  000C34  EF0D  F006         	goto	l869
  3021  000C38                     l3489:
  3022                           
  3023                           ; BSR set to: 0
  3024                           ;C:\Program Files\Microchip\xc8\v2.36\pic\sources\c99\common\doprnt.c: 402:     if (mode
      +                           == 'g') {
  3025  000C38  0E67               	movlw	103
  3026  000C3A  197B               	xorwf	efgtoa@mode& (0+255),w,b
  3027  000C3C  A4D8               	btfss	status,2,c
  3028  000C3E  EF23  F006         	goto	u3931
  3029  000C42  EF25  F006         	goto	u3930
  3030  000C46                     u3931:
  3031  000C46  EF54  F006         	goto	l3499
  3032  000C4A                     u3930:
  3033  000C4A                     
  3034                           ; BSR set to: 0
  3035                           ;C:\Program Files\Microchip\xc8\v2.36\pic\sources\c99\common\doprnt.c: 403:         if (
      +                          !(e < -4) && !((p - 1) < e)) {
  3036  000C4A  AF8B               	btfss	(efgtoa@e+1)& (0+255),7,b
  3037  000C4C  EF33  F006         	goto	u3940
  3038  000C50  0EFC               	movlw	252
  3039  000C52  5D8A               	subwf	efgtoa@e& (0+255),w,b
  3040  000C54  0EFF               	movlw	255
  3041  000C56  598B               	subwfb	(efgtoa@e+1)& (0+255),w,b
  3042  000C58  A0D8               	btfss	status,0,c
  3043  000C5A  EF31  F006         	goto	u3941
  3044  000C5E  EF33  F006         	goto	u3940
  3045  000C62                     u3941:
  3046  000C62  EF52  F006         	goto	l3497
  3047  000C66                     u3940:
  3048  000C66                     
  3049                           ; BSR set to: 0
  3050  000C66  0EFF               	movlw	255
  3051  000C68  6E47               	movwf	??_efgtoa^0,c
  3052  000C6A  0EFF               	movlw	255
  3053  000C6C  6E48               	movwf	(??_efgtoa+1)^0,c
  3054  000C6E  C076  F049         	movff	efgtoa@p,??_efgtoa+2
  3055  000C72  C077  F04A         	movff	efgtoa@p+1,??_efgtoa+3
  3056  000C76  5047               	movf	??_efgtoa^0,w,c
  3057  000C78  2649               	addwf	(??_efgtoa+2)^0,f,c
  3058  000C7A  5048               	movf	(??_efgtoa+1)^0,w,c
  3059  000C7C  224A               	addwfc	(??_efgtoa+3)^0,f,c
  3060  000C7E  518A               	movf	efgtoa@e& (0+255),w,b
  3061  000C80  5C49               	subwf	(??_efgtoa+2)^0,w,c
  3062  000C82  504A               	movf	(??_efgtoa+3)^0,w,c
  3063  000C84  0A80               	xorlw	128
  3064  000C86  6E4B               	movwf	(??_efgtoa+4)^0,c
  3065  000C88  518B               	movf	(efgtoa@e+1)& (0+255),w,b
  3066  000C8A  0A80               	xorlw	128
  3067  000C8C  584B               	subwfb	(??_efgtoa+4)^0,w,c
  3068  000C8E  A0D8               	btfss	status,0,c
  3069  000C90  EF4C  F006         	goto	u3951
  3070  000C94  EF4E  F006         	goto	u3950
  3071  000C98                     u3951:
  3072  000C98  EF52  F006         	goto	l3497
  3073  000C9C                     u3950:
  3074  000C9C                     
  3075                           ; BSR set to: 0
  3076                           ;C:\Program Files\Microchip\xc8\v2.36\pic\sources\c99\common\doprnt.c: 404:             
      +                          nmode = 'f';
  3077  000C9C  0E66               	movlw	102
  3078  000C9E  6F7A               	movwf	efgtoa@nmode& (0+255),b
  3079                           
  3080                           ;C:\Program Files\Microchip\xc8\v2.36\pic\sources\c99\common\doprnt.c: 405:         } el
      +                          se {
  3081  000CA0  EF54  F006         	goto	l3499
  3082  000CA4                     l3497:
  3083                           
  3084                           ; BSR set to: 0
  3085                           ;C:\Program Files\Microchip\xc8\v2.36\pic\sources\c99\common\doprnt.c: 406:             
      +                          nmode = 'e';
  3086  000CA4  0E65               	movlw	101
  3087  000CA6  6F7A               	movwf	efgtoa@nmode& (0+255),b
  3088  000CA8                     l3499:
  3089                           
  3090                           ; BSR set to: 0
  3091                           ;C:\Program Files\Microchip\xc8\v2.36\pic\sources\c99\common\doprnt.c: 411:     m = p;
  3092  000CA8  C076  F06C         	movff	efgtoa@p,efgtoa@m
  3093  000CAC  C077  F06D         	movff	efgtoa@p+1,efgtoa@m+1
  3094  000CB0                     
  3095                           ; BSR set to: 0
  3096                           ;C:\Program Files\Microchip\xc8\v2.36\pic\sources\c99\common\doprnt.c: 412:     if (!(mo
      +                          de == 'g') || ((nmode == 'f') && (e < 0))) {
  3097  000CB0  0E67               	movlw	103
  3098  000CB2  197B               	xorwf	efgtoa@mode& (0+255),w,b
  3099  000CB4  A4D8               	btfss	status,2,c
  3100  000CB6  EF5F  F006         	goto	u3961
  3101  000CBA  EF61  F006         	goto	u3960
  3102  000CBE                     u3961:
  3103  000CBE  EF71  F006         	goto	l3507
  3104  000CC2                     u3960:
  3105  000CC2                     
  3106                           ; BSR set to: 0
  3107  000CC2  0E66               	movlw	102
  3108  000CC4  197A               	xorwf	efgtoa@nmode& (0+255),w,b
  3109  000CC6  A4D8               	btfss	status,2,c
  3110  000CC8  EF68  F006         	goto	u3971
  3111  000CCC  EF6A  F006         	goto	u3970
  3112  000CD0                     u3971:
  3113  000CD0  EF73  F006         	goto	l3509
  3114  000CD4                     u3970:
  3115  000CD4                     
  3116                           ; BSR set to: 0
  3117  000CD4  BF8B               	btfsc	(efgtoa@e+1)& (0+255),7,b
  3118  000CD6  EF71  F006         	goto	u3980
  3119  000CDA  EF6F  F006         	goto	u3981
  3120  000CDE                     u3981:
  3121  000CDE  EF73  F006         	goto	l3509
  3122  000CE2                     u3980:
  3123  000CE2                     l3507:
  3124                           
  3125                           ; BSR set to: 0
  3126                           ;C:\Program Files\Microchip\xc8\v2.36\pic\sources\c99\common\doprnt.c: 413:         ++m;
  3127  000CE2  4B6C               	infsnz	efgtoa@m& (0+255),f,b
  3128  000CE4  2B6D               	incf	(efgtoa@m+1)& (0+255),f,b
  3129  000CE6                     l3509:
  3130                           
  3131                           ; BSR set to: 0
  3132                           ;C:\Program Files\Microchip\xc8\v2.36\pic\sources\c99\common\doprnt.c: 417:     if (nmod
      +                          e == 'f') {
  3133  000CE6  0E66               	movlw	102
  3134  000CE8  197A               	xorwf	efgtoa@nmode& (0+255),w,b
  3135  000CEA  A4D8               	btfss	status,2,c
  3136  000CEC  EF7A  F006         	goto	u3991
  3137  000CF0  EF7C  F006         	goto	u3990
  3138  000CF4                     u3991:
  3139  000CF4  EF9C  F006         	goto	l3519
  3140  000CF8                     u3990:
  3141  000CF8                     
  3142                           ; BSR set to: 0
  3143                           ;C:\Program Files\Microchip\xc8\v2.36\pic\sources\c99\common\doprnt.c: 418:         if (
      +                          e < 0) {
  3144  000CF8  BF8B               	btfsc	(efgtoa@e+1)& (0+255),7,b
  3145  000CFA  EF83  F006         	goto	u4000
  3146  000CFE  EF81  F006         	goto	u4001
  3147  000D02                     u4001:
  3148  000D02  EF8F  F006         	goto	l3515
  3149  000D06                     u4000:
  3150  000D06                     
  3151                           ; BSR set to: 0
  3152                           ;C:\Program Files\Microchip\xc8\v2.36\pic\sources\c99\common\doprnt.c: 419:             
      +                          u = 1.0;
  3153  000D06  0E00               	movlw	0
  3154  000D08  6F8E               	movwf	efgtoa@u& (0+255),b
  3155  000D0A  0E00               	movlw	0
  3156  000D0C  6F8F               	movwf	(efgtoa@u+1)& (0+255),b
  3157  000D0E  0E80               	movlw	128
  3158  000D10  6F90               	movwf	(efgtoa@u+2)& (0+255),b
  3159  000D12  0E3F               	movlw	63
  3160  000D14  6F91               	movwf	(efgtoa@u+3)& (0+255),b
  3161                           
  3162                           ;C:\Program Files\Microchip\xc8\v2.36\pic\sources\c99\common\doprnt.c: 420:             
      +                          e = 0;
  3163  000D16  0E00               	movlw	0
  3164  000D18  6F8B               	movwf	(efgtoa@e+1)& (0+255),b
  3165  000D1A  0E00               	movlw	0
  3166  000D1C  6F8A               	movwf	efgtoa@e& (0+255),b
  3167  000D1E                     l3515:
  3168                           
  3169                           ; BSR set to: 0
  3170                           ;C:\Program Files\Microchip\xc8\v2.36\pic\sources\c99\common\doprnt.c: 422:         if (
      +                          !(mode == 'g')) {
  3171  000D1E  0E67               	movlw	103
  3172  000D20  197B               	xorwf	efgtoa@mode& (0+255),w,b
  3173  000D22  B4D8               	btfsc	status,2,c
  3174  000D24  EF96  F006         	goto	u4011
  3175  000D28  EF98  F006         	goto	u4010
  3176  000D2C                     u4011:
  3177  000D2C  EF9C  F006         	goto	l3519
  3178  000D30                     u4010:
  3179  000D30                     
  3180                           ; BSR set to: 0
  3181                           ;C:\Program Files\Microchip\xc8\v2.36\pic\sources\c99\common\doprnt.c: 423:             
      +                          m += e;
  3182  000D30  518A               	movf	efgtoa@e& (0+255),w,b
  3183  000D32  276C               	addwf	efgtoa@m& (0+255),f,b
  3184  000D34  518B               	movf	(efgtoa@e+1)& (0+255),w,b
  3185  000D36  236D               	addwfc	(efgtoa@m+1)& (0+255),f,b
  3186  000D38                     l3519:
  3187                           
  3188                           ; BSR set to: 0
  3189                           ;C:\Program Files\Microchip\xc8\v2.36\pic\sources\c99\common\doprnt.c: 428:     i = 0;
  3190  000D38  0E00               	movlw	0
  3191  000D3A  6F85               	movwf	(efgtoa@i+1)& (0+255),b
  3192  000D3C  0E00               	movlw	0
  3193  000D3E  6F84               	movwf	efgtoa@i& (0+255),b
  3194  000D40                     
  3195                           ; BSR set to: 0
  3196                           ;C:\Program Files\Microchip\xc8\v2.36\pic\sources\c99\common\doprnt.c: 429:     h = g;
  3197  000D40  C086  F07C         	movff	efgtoa@g,efgtoa@h
  3198  000D44  C087  F07D         	movff	efgtoa@g+1,efgtoa@h+1
  3199  000D48  C088  F07E         	movff	efgtoa@g+2,efgtoa@h+2
  3200  000D4C  C089  F07F         	movff	efgtoa@g+3,efgtoa@h+3
  3201  000D50                     
  3202                           ; BSR set to: 0
  3203                           ;C:\Program Files\Microchip\xc8\v2.36\pic\sources\c99\common\doprnt.c: 430:     ou = u;
  3204  000D50  C08E  F06E         	movff	efgtoa@u,efgtoa@ou
  3205  000D54  C08F  F06F         	movff	efgtoa@u+1,efgtoa@ou+1
  3206  000D58  C090  F070         	movff	efgtoa@u+2,efgtoa@ou+2
  3207  000D5C  C091  F071         	movff	efgtoa@u+3,efgtoa@ou+3
  3208                           
  3209                           ;C:\Program Files\Microchip\xc8\v2.36\pic\sources\c99\common\doprnt.c: 431:     while (i
      +                           < m) {
  3210  000D60  EF2D  F007         	goto	l3533
  3211  000D64                     l3525:
  3212                           
  3213                           ; BSR set to: 0
  3214                           ;C:\Program Files\Microchip\xc8\v2.36\pic\sources\c99\common\doprnt.c: 432:         l = 
      +                          floorf(h/u);
  3215  000D64  C07C  F001         	movff	efgtoa@h,___fldiv@b
  3216  000D68  C07D  F002         	movff	efgtoa@h+1,___fldiv@b+1
  3217  000D6C  C07E  F003         	movff	efgtoa@h+2,___fldiv@b+2
  3218  000D70  C07F  F004         	movff	efgtoa@h+3,___fldiv@b+3
  3219  000D74  C08E  F005         	movff	efgtoa@u,___fldiv@a
  3220  000D78  C08F  F006         	movff	efgtoa@u+1,___fldiv@a+1
  3221  000D7C  C090  F007         	movff	efgtoa@u+2,___fldiv@a+2
  3222  000D80  C091  F008         	movff	efgtoa@u+3,___fldiv@a+3
  3223  000D84  ECC1  F010         	call	___fldiv	;wreg free
  3224  000D88  C001  F01A         	movff	?___fldiv,floorf@x
  3225  000D8C  C002  F01B         	movff	?___fldiv+1,floorf@x+1
  3226  000D90  C003  F01C         	movff	?___fldiv+2,floorf@x+2
  3227  000D94  C004  F01D         	movff	?___fldiv+3,floorf@x+3
  3228  000D98  EC8E  F012         	call	_floorf	;wreg free
  3229  000D9C  C01A  F080         	movff	?_floorf,efgtoa@l
  3230  000DA0  C01B  F081         	movff	?_floorf+1,efgtoa@l+1
  3231  000DA4  C01C  F082         	movff	?_floorf+2,efgtoa@l+2
  3232  000DA8  C01D  F083         	movff	?_floorf+3,efgtoa@l+3
  3233                           
  3234                           ;C:\Program Files\Microchip\xc8\v2.36\pic\sources\c99\common\doprnt.c: 433:         d = 
      +                          (int)l;
  3235  000DAC  C080  F001         	movff	efgtoa@l,___fltol@f1
  3236  000DB0  C081  F002         	movff	efgtoa@l+1,___fltol@f1+1
  3237  000DB4  C082  F003         	movff	efgtoa@l+2,___fltol@f1+2
  3238  000DB8  C083  F004         	movff	efgtoa@l+3,___fltol@f1+3
  3239  000DBC  ECD8  F015         	call	___fltol	;wreg free
  3240  000DC0  C001  F072         	movff	?___fltol,efgtoa@d
  3241  000DC4  C002  F073         	movff	?___fltol+1,efgtoa@d+1
  3242  000DC8                     
  3243                           ;C:\Program Files\Microchip\xc8\v2.36\pic\sources\c99\common\doprnt.c: 434:         h -=
      +                           l*u;
  3244  000DC8  C07C  F038         	movff	efgtoa@h,___flsub@b
  3245  000DCC  C07D  F039         	movff	efgtoa@h+1,___flsub@b+1
  3246  000DD0  C07E  F03A         	movff	efgtoa@h+2,___flsub@b+2
  3247  000DD4  C07F  F03B         	movff	efgtoa@h+3,___flsub@b+3
  3248  000DD8  C08E  F013         	movff	efgtoa@u,___flmul@a
  3249  000DDC  C08F  F014         	movff	efgtoa@u+1,___flmul@a+1
  3250  000DE0  C090  F015         	movff	efgtoa@u+2,___flmul@a+2
  3251  000DE4  C091  F016         	movff	efgtoa@u+3,___flmul@a+3
  3252  000DE8  C080  F00F         	movff	efgtoa@l,___flmul@b
  3253  000DEC  C081  F010         	movff	efgtoa@l+1,___flmul@b+1
  3254  000DF0  C082  F011         	movff	efgtoa@l+2,___flmul@b+2
  3255  000DF4  C083  F012         	movff	efgtoa@l+3,___flmul@b+3
  3256  000DF8  ECAC  F00E         	call	___flmul	;wreg free
  3257  000DFC  C00F  F03C         	movff	?___flmul,___flsub@a
  3258  000E00  C010  F03D         	movff	?___flmul+1,___flsub@a+1
  3259  000E04  C011  F03E         	movff	?___flmul+2,___flsub@a+2
  3260  000E08  C012  F03F         	movff	?___flmul+3,___flsub@a+3
  3261  000E0C  ECC7  F01B         	call	___flsub	;wreg free
  3262  000E10  C038  F07C         	movff	?___flsub,efgtoa@h
  3263  000E14  C039  F07D         	movff	?___flsub+1,efgtoa@h+1
  3264  000E18  C03A  F07E         	movff	?___flsub+2,efgtoa@h+2
  3265  000E1C  C03B  F07F         	movff	?___flsub+3,efgtoa@h+3
  3266  000E20                     
  3267                           ;C:\Program Files\Microchip\xc8\v2.36\pic\sources\c99\common\doprnt.c: 435:         u = 
      +                          u/10.0;
  3268  000E20  C08E  F001         	movff	efgtoa@u,___fldiv@b
  3269  000E24  C08F  F002         	movff	efgtoa@u+1,___fldiv@b+1
  3270  000E28  C090  F003         	movff	efgtoa@u+2,___fldiv@b+2
  3271  000E2C  C091  F004         	movff	efgtoa@u+3,___fldiv@b+3
  3272  000E30  0E00               	movlw	0
  3273  000E32  6E05               	movwf	___fldiv@a^0,c
  3274  000E34  0E00               	movlw	0
  3275  000E36  6E06               	movwf	(___fldiv@a+1)^0,c
  3276  000E38  0E20               	movlw	32
  3277  000E3A  6E07               	movwf	(___fldiv@a+2)^0,c
  3278  000E3C  0E41               	movlw	65
  3279  000E3E  6E08               	movwf	(___fldiv@a+3)^0,c
  3280  000E40  ECC1  F010         	call	___fldiv	;wreg free
  3281  000E44  C001  F08E         	movff	?___fldiv,efgtoa@u
  3282  000E48  C002  F08F         	movff	?___fldiv+1,efgtoa@u+1
  3283  000E4C  C003  F090         	movff	?___fldiv+2,efgtoa@u+2
  3284  000E50  C004  F091         	movff	?___fldiv+3,efgtoa@u+3
  3285  000E54                     
  3286                           ;C:\Program Files\Microchip\xc8\v2.36\pic\sources\c99\common\doprnt.c: 436:         ++i;
  3287  000E54  0100               	movlb	0	; () banked
  3288  000E56  4B84               	infsnz	efgtoa@i& (0+255),f,b
  3289  000E58  2B85               	incf	(efgtoa@i+1)& (0+255),f,b
  3290  000E5A                     l3533:
  3291                           
  3292                           ; BSR set to: 0
  3293                           ;C:\Program Files\Microchip\xc8\v2.36\pic\sources\c99\common\doprnt.c: 431:     while (i
      +                           < m) {
  3294  000E5A  516C               	movf	efgtoa@m& (0+255),w,b
  3295  000E5C  5D84               	subwf	efgtoa@i& (0+255),w,b
  3296  000E5E  5185               	movf	(efgtoa@i+1)& (0+255),w,b
  3297  000E60  0A80               	xorlw	128
  3298  000E62  6E47               	movwf	??_efgtoa^0,c
  3299  000E64  516D               	movf	(efgtoa@m+1)& (0+255),w,b
  3300  000E66  0A80               	xorlw	128
  3301  000E68  5847               	subwfb	??_efgtoa^0,w,c
  3302  000E6A  A0D8               	btfss	status,0,c
  3303  000E6C  EF3A  F007         	goto	u4021
  3304  000E70  EF3C  F007         	goto	u4020
  3305  000E74                     u4021:
  3306  000E74  EFB2  F006         	goto	l3525
  3307  000E78                     u4020:
  3308  000E78                     
  3309                           ; BSR set to: 0
  3310                           ;C:\Program Files\Microchip\xc8\v2.36\pic\sources\c99\common\doprnt.c: 440:     l = u*5.
      +                          0;
  3311  000E78  C08E  F00F         	movff	efgtoa@u,___flmul@b
  3312  000E7C  C08F  F010         	movff	efgtoa@u+1,___flmul@b+1
  3313  000E80  C090  F011         	movff	efgtoa@u+2,___flmul@b+2
  3314  000E84  C091  F012         	movff	efgtoa@u+3,___flmul@b+3
  3315  000E88  0E00               	movlw	0
  3316  000E8A  6E13               	movwf	___flmul@a^0,c
  3317  000E8C  0E00               	movlw	0
  3318  000E8E  6E14               	movwf	(___flmul@a+1)^0,c
  3319  000E90  0EA0               	movlw	160
  3320  000E92  6E15               	movwf	(___flmul@a+2)^0,c
  3321  000E94  0E40               	movlw	64
  3322  000E96  6E16               	movwf	(___flmul@a+3)^0,c
  3323  000E98  ECAC  F00E         	call	___flmul	;wreg free
  3324  000E9C  C00F  F080         	movff	?___flmul,efgtoa@l
  3325  000EA0  C010  F081         	movff	?___flmul+1,efgtoa@l+1
  3326  000EA4  C011  F082         	movff	?___flmul+2,efgtoa@l+2
  3327  000EA8  C012  F083         	movff	?___flmul+3,efgtoa@l+3
  3328  000EAC                     
  3329                           ;C:\Program Files\Microchip\xc8\v2.36\pic\sources\c99\common\doprnt.c: 441:     if (h < 
      +                          l) {
  3330  000EAC  C07C  F028         	movff	efgtoa@h,___flge@ff1
  3331  000EB0  C07D  F029         	movff	efgtoa@h+1,___flge@ff1+1
  3332  000EB4  C07E  F02A         	movff	efgtoa@h+2,___flge@ff1+2
  3333  000EB8  C07F  F02B         	movff	efgtoa@h+3,___flge@ff1+3
  3334  000EBC  C080  F02C         	movff	efgtoa@l,___flge@ff2
  3335  000EC0  C081  F02D         	movff	efgtoa@l+1,___flge@ff2+1
  3336  000EC4  C082  F02E         	movff	efgtoa@l+2,___flge@ff2+2
  3337  000EC8  C083  F02F         	movff	efgtoa@l+3,___flge@ff2+3
  3338  000ECC  EC5B  F016         	call	___flge	;wreg free
  3339  000ED0  B0D8               	btfsc	status,0,c
  3340  000ED2  EF6D  F007         	goto	u4031
  3341  000ED6  EF6F  F007         	goto	u4030
  3342  000EDA                     u4031:
  3343  000EDA  EF7A  F007         	goto	l3541
  3344  000EDE                     u4030:
  3345  000EDE                     
  3346                           ;C:\Program Files\Microchip\xc8\v2.36\pic\sources\c99\common\doprnt.c: 442:         l = 
      +                          0.0;
  3347  000EDE  0E00               	movlw	0
  3348  000EE0  0100               	movlb	0	; () banked
  3349  000EE2  6F80               	movwf	efgtoa@l& (0+255),b
  3350  000EE4  0E00               	movlw	0
  3351  000EE6  6F81               	movwf	(efgtoa@l+1)& (0+255),b
  3352  000EE8  0E00               	movlw	0
  3353  000EEA  6F82               	movwf	(efgtoa@l+2)& (0+255),b
  3354  000EEC  0E00               	movlw	0
  3355  000EEE  6F83               	movwf	(efgtoa@l+3)& (0+255),b
  3356                           
  3357                           ;C:\Program Files\Microchip\xc8\v2.36\pic\sources\c99\common\doprnt.c: 443:     } else {
  3358  000EF0  EFA3  F007         	goto	l3547
  3359  000EF4                     l3541:
  3360                           
  3361                           ;C:\Program Files\Microchip\xc8\v2.36\pic\sources\c99\common\doprnt.c: 445:         if (
      +                          (h == l) && !(d % 2)) {
  3362  000EF4  C07C  F001         	movff	efgtoa@h,___fleq@ff1
  3363  000EF8  C07D  F002         	movff	efgtoa@h+1,___fleq@ff1+1
  3364  000EFC  C07E  F003         	movff	efgtoa@h+2,___fleq@ff1+2
  3365  000F00  C07F  F004         	movff	efgtoa@h+3,___fleq@ff1+3
  3366  000F04  C080  F005         	movff	efgtoa@l,___fleq@ff2
  3367  000F08  C081  F006         	movff	efgtoa@l+1,___fleq@ff2+1
  3368  000F0C  C082  F007         	movff	efgtoa@l+2,___fleq@ff2+2
  3369  000F10  C083  F008         	movff	efgtoa@l+3,___fleq@ff2+3
  3370  000F14  ECC3  F019         	call	___fleq	;wreg free
  3371  000F18  A0D8               	btfss	status,0,c
  3372  000F1A  EF91  F007         	goto	u4041
  3373  000F1E  EF93  F007         	goto	u4040
  3374  000F22                     u4041:
  3375  000F22  EFA3  F007         	goto	l3547
  3376  000F26                     u4040:
  3377  000F26  0100               	movlb	0	; () banked
  3378  000F28  B172               	btfsc	efgtoa@d& (0+255),0,b
  3379  000F2A  EF99  F007         	goto	u4051
  3380  000F2E  EF9B  F007         	goto	u4050
  3381  000F32                     u4051:
  3382  000F32  EFA3  F007         	goto	l3547
  3383  000F36                     u4050:
  3384  000F36                     
  3385                           ; BSR set to: 0
  3386                           ;C:\Program Files\Microchip\xc8\v2.36\pic\sources\c99\common\doprnt.c: 446:             
      +                          l = 0.0;
  3387  000F36  0E00               	movlw	0
  3388  000F38  6F80               	movwf	efgtoa@l& (0+255),b
  3389  000F3A  0E00               	movlw	0
  3390  000F3C  6F81               	movwf	(efgtoa@l+1)& (0+255),b
  3391  000F3E  0E00               	movlw	0
  3392  000F40  6F82               	movwf	(efgtoa@l+2)& (0+255),b
  3393  000F42  0E00               	movlw	0
  3394  000F44  6F83               	movwf	(efgtoa@l+3)& (0+255),b
  3395  000F46                     l3547:
  3396                           
  3397                           ;C:\Program Files\Microchip\xc8\v2.36\pic\sources\c99\common\doprnt.c: 451:     h = g + 
      +                          l;
  3398  000F46  C086  F028         	movff	efgtoa@g,___fladd@b
  3399  000F4A  C087  F029         	movff	efgtoa@g+1,___fladd@b+1
  3400  000F4E  C088  F02A         	movff	efgtoa@g+2,___fladd@b+2
  3401  000F52  C089  F02B         	movff	efgtoa@g+3,___fladd@b+3
  3402  000F56  C080  F02C         	movff	efgtoa@l,___fladd@a
  3403  000F5A  C081  F02D         	movff	efgtoa@l+1,___fladd@a+1
  3404  000F5E  C082  F02E         	movff	efgtoa@l+2,___fladd@a+2
  3405  000F62  C083  F02F         	movff	efgtoa@l+3,___fladd@a+3
  3406  000F66  EC36  F00A         	call	___fladd	;wreg free
  3407  000F6A  C028  F07C         	movff	?___fladd,efgtoa@h
  3408  000F6E  C029  F07D         	movff	?___fladd+1,efgtoa@h+1
  3409  000F72  C02A  F07E         	movff	?___fladd+2,efgtoa@h+2
  3410  000F76  C02B  F07F         	movff	?___fladd+3,efgtoa@h+3
  3411  000F7A                     
  3412                           ;C:\Program Files\Microchip\xc8\v2.36\pic\sources\c99\common\doprnt.c: 453:  if (h >= (o
      +                          u*10.0)) {
  3413  000F7A  C07C  F028         	movff	efgtoa@h,___flge@ff1
  3414  000F7E  C07D  F029         	movff	efgtoa@h+1,___flge@ff1+1
  3415  000F82  C07E  F02A         	movff	efgtoa@h+2,___flge@ff1+2
  3416  000F86  C07F  F02B         	movff	efgtoa@h+3,___flge@ff1+3
  3417  000F8A  0E00               	movlw	0
  3418  000F8C  6E13               	movwf	___flmul@a^0,c
  3419  000F8E  0E00               	movlw	0
  3420  000F90  6E14               	movwf	(___flmul@a+1)^0,c
  3421  000F92  0E20               	movlw	32
  3422  000F94  6E15               	movwf	(___flmul@a+2)^0,c
  3423  000F96  0E41               	movlw	65
  3424  000F98  6E16               	movwf	(___flmul@a+3)^0,c
  3425  000F9A  C06E  F00F         	movff	efgtoa@ou,___flmul@b
  3426  000F9E  C06F  F010         	movff	efgtoa@ou+1,___flmul@b+1
  3427  000FA2  C070  F011         	movff	efgtoa@ou+2,___flmul@b+2
  3428  000FA6  C071  F012         	movff	efgtoa@ou+3,___flmul@b+3
  3429  000FAA  ECAC  F00E         	call	___flmul	;wreg free
  3430  000FAE  C00F  F02C         	movff	?___flmul,___flge@ff2
  3431  000FB2  C010  F02D         	movff	?___flmul+1,___flge@ff2+1
  3432  000FB6  C011  F02E         	movff	?___flmul+2,___flge@ff2+2
  3433  000FBA  C012  F02F         	movff	?___flmul+3,___flge@ff2+3
  3434  000FBE  EC5B  F016         	call	___flge	;wreg free
  3435  000FC2  A0D8               	btfss	status,0,c
  3436  000FC4  EFE6  F007         	goto	u4061
  3437  000FC8  EFE8  F007         	goto	u4060
  3438  000FCC                     u4061:
  3439  000FCC  EF11  F008         	goto	l3559
  3440  000FD0                     u4060:
  3441  000FD0                     
  3442                           ;C:\Program Files\Microchip\xc8\v2.36\pic\sources\c99\common\doprnt.c: 454:   e++;
  3443  000FD0  0100               	movlb	0	; () banked
  3444  000FD2  4B8A               	infsnz	efgtoa@e& (0+255),f,b
  3445  000FD4  2B8B               	incf	(efgtoa@e+1)& (0+255),f,b
  3446  000FD6                     
  3447                           ; BSR set to: 0
  3448                           ;C:\Program Files\Microchip\xc8\v2.36\pic\sources\c99\common\doprnt.c: 455:   ou *= 10.0
      +                          ;
  3449  000FD6  C06E  F00F         	movff	efgtoa@ou,___flmul@b
  3450  000FDA  C06F  F010         	movff	efgtoa@ou+1,___flmul@b+1
  3451  000FDE  C070  F011         	movff	efgtoa@ou+2,___flmul@b+2
  3452  000FE2  C071  F012         	movff	efgtoa@ou+3,___flmul@b+3
  3453  000FE6  0E00               	movlw	0
  3454  000FE8  6E13               	movwf	___flmul@a^0,c
  3455  000FEA  0E00               	movlw	0
  3456  000FEC  6E14               	movwf	(___flmul@a+1)^0,c
  3457  000FEE  0E20               	movlw	32
  3458  000FF0  6E15               	movwf	(___flmul@a+2)^0,c
  3459  000FF2  0E41               	movlw	65
  3460  000FF4  6E16               	movwf	(___flmul@a+3)^0,c
  3461  000FF6  ECAC  F00E         	call	___flmul	;wreg free
  3462  000FFA  C00F  F06E         	movff	?___flmul,efgtoa@ou
  3463  000FFE  C010  F06F         	movff	?___flmul+1,efgtoa@ou+1
  3464  001002  C011  F070         	movff	?___flmul+2,efgtoa@ou+2
  3465  001006  C012  F071         	movff	?___flmul+3,efgtoa@ou+3
  3466  00100A                     
  3467                           ;C:\Program Files\Microchip\xc8\v2.36\pic\sources\c99\common\doprnt.c: 456:   if (nmode 
      +                          == 'f') {
  3468  00100A  0E66               	movlw	102
  3469  00100C  0100               	movlb	0	; () banked
  3470  00100E  197A               	xorwf	efgtoa@nmode& (0+255),w,b
  3471  001010  A4D8               	btfss	status,2,c
  3472  001012  EF0D  F008         	goto	u4071
  3473  001016  EF0F  F008         	goto	u4070
  3474  00101A                     u4071:
  3475  00101A  EF11  F008         	goto	l3559
  3476  00101E                     u4070:
  3477  00101E                     
  3478                           ; BSR set to: 0
  3479                           ;C:\Program Files\Microchip\xc8\v2.36\pic\sources\c99\common\doprnt.c: 458:    m++;
  3480  00101E  4B6C               	infsnz	efgtoa@m& (0+255),f,b
  3481  001020  2B6D               	incf	(efgtoa@m+1)& (0+255),f,b
  3482  001022                     l3559:
  3483                           
  3484                           ;C:\Program Files\Microchip\xc8\v2.36\pic\sources\c99\common\doprnt.c: 463:     u = ou;
  3485  001022  C06E  F08E         	movff	efgtoa@ou,efgtoa@u
  3486  001026  C06F  F08F         	movff	efgtoa@ou+1,efgtoa@u+1
  3487  00102A  C070  F090         	movff	efgtoa@ou+2,efgtoa@u+2
  3488  00102E  C071  F091         	movff	efgtoa@ou+3,efgtoa@u+3
  3489  001032                     
  3490                           ;C:\Program Files\Microchip\xc8\v2.36\pic\sources\c99\common\doprnt.c: 464:     ne = (nm
      +                          ode == 'e') ? 0 : e;
  3491  001032  0E65               	movlw	101
  3492  001034  0100               	movlb	0	; () banked
  3493  001036  197A               	xorwf	efgtoa@nmode& (0+255),w,b
  3494  001038  B4D8               	btfsc	status,2,c
  3495  00103A  EF21  F008         	goto	u4081
  3496  00103E  EF23  F008         	goto	u4080
  3497  001042                     u4081:
  3498  001042  EF29  F008         	goto	l3565
  3499  001046                     u4080:
  3500  001046                     
  3501                           ; BSR set to: 0
  3502  001046  C08A  F06A         	movff	efgtoa@e,efgtoa@ne
  3503  00104A  C08B  F06B         	movff	efgtoa@e+1,efgtoa@ne+1
  3504  00104E  EF2D  F008         	goto	l897
  3505  001052                     l3565:
  3506                           
  3507                           ; BSR set to: 0
  3508  001052  0E00               	movlw	0
  3509  001054  6F6B               	movwf	(efgtoa@ne+1)& (0+255),b
  3510  001056  0E00               	movlw	0
  3511  001058  6F6A               	movwf	efgtoa@ne& (0+255),b
  3512  00105A                     l897:
  3513                           
  3514                           ; BSR set to: 0
  3515                           ;C:\Program Files\Microchip\xc8\v2.36\pic\sources\c99\common\doprnt.c: 465:     pp = 0;
  3516  00105A  0E00               	movlw	0
  3517  00105C  6F69               	movwf	(efgtoa@pp+1)& (0+255),b
  3518  00105E  0E00               	movlw	0
  3519  001060  6F68               	movwf	efgtoa@pp& (0+255),b
  3520                           
  3521                           ;C:\Program Files\Microchip\xc8\v2.36\pic\sources\c99\common\doprnt.c: 466:     t = 0;
  3522  001062  0E00               	movlw	0
  3523  001064  6F67               	movwf	(efgtoa@t+1)& (0+255),b
  3524  001066  0E00               	movlw	0
  3525  001068  6F66               	movwf	efgtoa@t& (0+255),b
  3526                           
  3527                           ;C:\Program Files\Microchip\xc8\v2.36\pic\sources\c99\common\doprnt.c: 467:     i = 0;
  3528  00106A  0E00               	movlw	0
  3529  00106C  6F85               	movwf	(efgtoa@i+1)& (0+255),b
  3530  00106E  0E00               	movlw	0
  3531  001070  6F84               	movwf	efgtoa@i& (0+255),b
  3532                           
  3533                           ;C:\Program Files\Microchip\xc8\v2.36\pic\sources\c99\common\doprnt.c: 468:     while ((
      +                          i < m) && (n < (80 - 5))) {
  3534  001072  EF28  F009         	goto	l3615
  3535  001076                     l3567:
  3536                           
  3537                           ; BSR set to: 0
  3538                           ;C:\Program Files\Microchip\xc8\v2.36\pic\sources\c99\common\doprnt.c: 469:         l = 
      +                          floorf(h/u);
  3539  001076  C07C  F001         	movff	efgtoa@h,___fldiv@b
  3540  00107A  C07D  F002         	movff	efgtoa@h+1,___fldiv@b+1
  3541  00107E  C07E  F003         	movff	efgtoa@h+2,___fldiv@b+2
  3542  001082  C07F  F004         	movff	efgtoa@h+3,___fldiv@b+3
  3543  001086  C08E  F005         	movff	efgtoa@u,___fldiv@a
  3544  00108A  C08F  F006         	movff	efgtoa@u+1,___fldiv@a+1
  3545  00108E  C090  F007         	movff	efgtoa@u+2,___fldiv@a+2
  3546  001092  C091  F008         	movff	efgtoa@u+3,___fldiv@a+3
  3547  001096  ECC1  F010         	call	___fldiv	;wreg free
  3548  00109A  C001  F01A         	movff	?___fldiv,floorf@x
  3549  00109E  C002  F01B         	movff	?___fldiv+1,floorf@x+1
  3550  0010A2  C003  F01C         	movff	?___fldiv+2,floorf@x+2
  3551  0010A6  C004  F01D         	movff	?___fldiv+3,floorf@x+3
  3552  0010AA  EC8E  F012         	call	_floorf	;wreg free
  3553  0010AE  C01A  F080         	movff	?_floorf,efgtoa@l
  3554  0010B2  C01B  F081         	movff	?_floorf+1,efgtoa@l+1
  3555  0010B6  C01C  F082         	movff	?_floorf+2,efgtoa@l+2
  3556  0010BA  C01D  F083         	movff	?_floorf+3,efgtoa@l+3
  3557                           
  3558                           ;C:\Program Files\Microchip\xc8\v2.36\pic\sources\c99\common\doprnt.c: 470:         d = 
      +                          (int)l;
  3559  0010BE  C080  F001         	movff	efgtoa@l,___fltol@f1
  3560  0010C2  C081  F002         	movff	efgtoa@l+1,___fltol@f1+1
  3561  0010C6  C082  F003         	movff	efgtoa@l+2,___fltol@f1+2
  3562  0010CA  C083  F004         	movff	efgtoa@l+3,___fltol@f1+3
  3563  0010CE  ECD8  F015         	call	___fltol	;wreg free
  3564  0010D2  C001  F072         	movff	?___fltol,efgtoa@d
  3565  0010D6  C002  F073         	movff	?___fltol+1,efgtoa@d+1
  3566  0010DA                     
  3567                           ;C:\Program Files\Microchip\xc8\v2.36\pic\sources\c99\common\doprnt.c: 471:         if (
      +                          !(flags & (1 << 4)) && !d && (mode == 'g') && (ne < 0)) {
  3568  0010DA  0100               	movlb	0	; () banked
  3569  0010DC  B9D1               	btfsc	_flags& (0+255),4,b
  3570  0010DE  EF73  F008         	goto	u4091
  3571  0010E2  EF75  F008         	goto	u4090
  3572  0010E6                     u4091:
  3573  0010E6  EF92  F008         	goto	l3579
  3574  0010EA                     u4090:
  3575  0010EA                     
  3576                           ; BSR set to: 0
  3577  0010EA  5172               	movf	efgtoa@d& (0+255),w,b
  3578  0010EC  1173               	iorwf	(efgtoa@d+1)& (0+255),w,b
  3579  0010EE  A4D8               	btfss	status,2,c
  3580  0010F0  EF7C  F008         	goto	u4101
  3581  0010F4  EF7E  F008         	goto	u4100
  3582  0010F8                     u4101:
  3583  0010F8  EF92  F008         	goto	l3579
  3584  0010FC                     u4100:
  3585  0010FC                     
  3586                           ; BSR set to: 0
  3587  0010FC  0E67               	movlw	103
  3588  0010FE  197B               	xorwf	efgtoa@mode& (0+255),w,b
  3589  001100  A4D8               	btfss	status,2,c
  3590  001102  EF85  F008         	goto	u4111
  3591  001106  EF87  F008         	goto	u4110
  3592  00110A                     u4111:
  3593  00110A  EF92  F008         	goto	l3579
  3594  00110E                     u4110:
  3595  00110E                     
  3596                           ; BSR set to: 0
  3597  00110E  BF6B               	btfsc	(efgtoa@ne+1)& (0+255),7,b
  3598  001110  EF8E  F008         	goto	u4120
  3599  001114  EF8C  F008         	goto	u4121
  3600  001118                     u4121:
  3601  001118  EF92  F008         	goto	l3579
  3602  00111C                     u4120:
  3603  00111C                     
  3604                           ; BSR set to: 0
  3605                           ;C:\Program Files\Microchip\xc8\v2.36\pic\sources\c99\common\doprnt.c: 472:             
      +                          ++t;
  3606  00111C  4B66               	infsnz	efgtoa@t& (0+255),f,b
  3607  00111E  2B67               	incf	(efgtoa@t+1)& (0+255),f,b
  3608                           
  3609                           ;C:\Program Files\Microchip\xc8\v2.36\pic\sources\c99\common\doprnt.c: 473:         } el
      +                          se {
  3610  001120  EFDC  F008         	goto	l3607
  3611  001124                     l3579:
  3612                           
  3613                           ; BSR set to: 0
  3614                           ;C:\Program Files\Microchip\xc8\v2.36\pic\sources\c99\common\doprnt.c: 474:             
      +                          if (!pp && (ne < 0)) {
  3615  001124  5168               	movf	efgtoa@pp& (0+255),w,b
  3616  001126  1169               	iorwf	(efgtoa@pp+1)& (0+255),w,b
  3617  001128  A4D8               	btfss	status,2,c
  3618  00112A  EF99  F008         	goto	u4131
  3619  00112E  EF9B  F008         	goto	u4130
  3620  001132                     u4131:
  3621  001132  EFC5  F008         	goto	l3599
  3622  001136                     u4130:
  3623  001136                     
  3624                           ; BSR set to: 0
  3625  001136  BF6B               	btfsc	(efgtoa@ne+1)& (0+255),7,b
  3626  001138  EFA2  F008         	goto	u4140
  3627  00113C  EFA0  F008         	goto	u4141
  3628  001140                     u4141:
  3629  001140  EFC5  F008         	goto	l3599
  3630  001144                     u4140:
  3631  001144                     
  3632                           ; BSR set to: 0
  3633                           ;C:\Program Files\Microchip\xc8\v2.36\pic\sources\c99\common\doprnt.c: 475:             
      +                              dbuf[n++] = '.';
  3634  001144  0E00               	movlw	low _dbuf
  3635  001146  258C               	addwf	efgtoa@n& (0+255),w,b
  3636  001148  6ED9               	movwf	fsr2l,c
  3637  00114A  0E01               	movlw	high _dbuf
  3638  00114C  218D               	addwfc	(efgtoa@n+1)& (0+255),w,b
  3639  00114E  6EDA               	movwf	fsr2h,c
  3640  001150  0E2E               	movlw	46
  3641  001152  6EDF               	movwf	indf2,c
  3642  001154                     
  3643                           ; BSR set to: 0
  3644  001154  4B8C               	infsnz	efgtoa@n& (0+255),f,b
  3645  001156  2B8D               	incf	(efgtoa@n+1)& (0+255),f,b
  3646  001158                     
  3647                           ; BSR set to: 0
  3648                           ;C:\Program Files\Microchip\xc8\v2.36\pic\sources\c99\common\doprnt.c: 476:             
      +                              --w;
  3649  001158  0778               	decf	efgtoa@w& (0+255),f,b
  3650  00115A  A0D8               	btfss	status,0,c
  3651  00115C  0779               	decf	(efgtoa@w+1)& (0+255),f,b
  3652  00115E                     
  3653                           ; BSR set to: 0
  3654                           ;C:\Program Files\Microchip\xc8\v2.36\pic\sources\c99\common\doprnt.c: 477:             
      +                              pp = 1;
  3655  00115E  0E00               	movlw	0
  3656  001160  6F69               	movwf	(efgtoa@pp+1)& (0+255),b
  3657  001162  0E01               	movlw	1
  3658  001164  6F68               	movwf	efgtoa@pp& (0+255),b
  3659  001166  EFC5  F008         	goto	l3599
  3660  00116A                     l3591:
  3661                           
  3662                           ; BSR set to: 0
  3663                           ;C:\Program Files\Microchip\xc8\v2.36\pic\sources\c99\common\doprnt.c: 480:             
      +                              dbuf[n++] = '0';
  3664  00116A  0E00               	movlw	low _dbuf
  3665  00116C  258C               	addwf	efgtoa@n& (0+255),w,b
  3666  00116E  6ED9               	movwf	fsr2l,c
  3667  001170  0E01               	movlw	high _dbuf
  3668  001172  218D               	addwfc	(efgtoa@n+1)& (0+255),w,b
  3669  001174  6EDA               	movwf	fsr2h,c
  3670  001176  0E30               	movlw	48
  3671  001178  6EDF               	movwf	indf2,c
  3672  00117A                     
  3673                           ; BSR set to: 0
  3674  00117A  4B8C               	infsnz	efgtoa@n& (0+255),f,b
  3675  00117C  2B8D               	incf	(efgtoa@n+1)& (0+255),f,b
  3676  00117E                     
  3677                           ; BSR set to: 0
  3678                           ;C:\Program Files\Microchip\xc8\v2.36\pic\sources\c99\common\doprnt.c: 481:             
      +                              --w;
  3679  00117E  0778               	decf	efgtoa@w& (0+255),f,b
  3680  001180  A0D8               	btfss	status,0,c
  3681  001182  0779               	decf	(efgtoa@w+1)& (0+255),f,b
  3682  001184                     
  3683                           ; BSR set to: 0
  3684                           ;C:\Program Files\Microchip\xc8\v2.36\pic\sources\c99\common\doprnt.c: 482:             
      +                              --t;
  3685  001184  0766               	decf	efgtoa@t& (0+255),f,b
  3686  001186  A0D8               	btfss	status,0,c
  3687  001188  0767               	decf	(efgtoa@t+1)& (0+255),f,b
  3688  00118A                     l3599:
  3689                           
  3690                           ; BSR set to: 0
  3691                           ;C:\Program Files\Microchip\xc8\v2.36\pic\sources\c99\common\doprnt.c: 479:             
      +                          while (t) {
  3692  00118A  5166               	movf	efgtoa@t& (0+255),w,b
  3693  00118C  1167               	iorwf	(efgtoa@t+1)& (0+255),w,b
  3694  00118E  A4D8               	btfss	status,2,c
  3695  001190  EFCC  F008         	goto	u4151
  3696  001194  EFCE  F008         	goto	u4150
  3697  001198                     u4151:
  3698  001198  EFB5  F008         	goto	l3591
  3699  00119C                     u4150:
  3700  00119C                     
  3701                           ; BSR set to: 0
  3702                           ;C:\Program Files\Microchip\xc8\v2.36\pic\sources\c99\common\doprnt.c: 484:             
      +                          dbuf[n++] = (char)((int)'0' + d);
  3703  00119C  0E00               	movlw	low _dbuf
  3704  00119E  258C               	addwf	efgtoa@n& (0+255),w,b
  3705  0011A0  6ED9               	movwf	fsr2l,c
  3706  0011A2  0E01               	movlw	high _dbuf
  3707  0011A4  218D               	addwfc	(efgtoa@n+1)& (0+255),w,b
  3708  0011A6  6EDA               	movwf	fsr2h,c
  3709  0011A8  5172               	movf	efgtoa@d& (0+255),w,b
  3710  0011AA  0F30               	addlw	48
  3711  0011AC  6EDF               	movwf	indf2,c
  3712  0011AE                     
  3713                           ; BSR set to: 0
  3714  0011AE  4B8C               	infsnz	efgtoa@n& (0+255),f,b
  3715  0011B0  2B8D               	incf	(efgtoa@n+1)& (0+255),f,b
  3716  0011B2                     
  3717                           ; BSR set to: 0
  3718                           ;C:\Program Files\Microchip\xc8\v2.36\pic\sources\c99\common\doprnt.c: 485:             
      +                          --w;
  3719  0011B2  0778               	decf	efgtoa@w& (0+255),f,b
  3720  0011B4  A0D8               	btfss	status,0,c
  3721  0011B6  0779               	decf	(efgtoa@w+1)& (0+255),f,b
  3722  0011B8                     l3607:
  3723                           
  3724                           ; BSR set to: 0
  3725                           ;C:\Program Files\Microchip\xc8\v2.36\pic\sources\c99\common\doprnt.c: 487:         h -=
      +                           l*u;
  3726  0011B8  C07C  F038         	movff	efgtoa@h,___flsub@b
  3727  0011BC  C07D  F039         	movff	efgtoa@h+1,___flsub@b+1
  3728  0011C0  C07E  F03A         	movff	efgtoa@h+2,___flsub@b+2
  3729  0011C4  C07F  F03B         	movff	efgtoa@h+3,___flsub@b+3
  3730  0011C8  C08E  F013         	movff	efgtoa@u,___flmul@a
  3731  0011CC  C08F  F014         	movff	efgtoa@u+1,___flmul@a+1
  3732  0011D0  C090  F015         	movff	efgtoa@u+2,___flmul@a+2
  3733  0011D4  C091  F016         	movff	efgtoa@u+3,___flmul@a+3
  3734  0011D8  C080  F00F         	movff	efgtoa@l,___flmul@b
  3735  0011DC  C081  F010         	movff	efgtoa@l+1,___flmul@b+1
  3736  0011E0  C082  F011         	movff	efgtoa@l+2,___flmul@b+2
  3737  0011E4  C083  F012         	movff	efgtoa@l+3,___flmul@b+3
  3738  0011E8  ECAC  F00E         	call	___flmul	;wreg free
  3739  0011EC  C00F  F03C         	movff	?___flmul,___flsub@a
  3740  0011F0  C010  F03D         	movff	?___flmul+1,___flsub@a+1
  3741  0011F4  C011  F03E         	movff	?___flmul+2,___flsub@a+2
  3742  0011F8  C012  F03F         	movff	?___flmul+3,___flsub@a+3
  3743  0011FC  ECC7  F01B         	call	___flsub	;wreg free
  3744  001200  C038  F07C         	movff	?___flsub,efgtoa@h
  3745  001204  C039  F07D         	movff	?___flsub+1,efgtoa@h+1
  3746  001208  C03A  F07E         	movff	?___flsub+2,efgtoa@h+2
  3747  00120C  C03B  F07F         	movff	?___flsub+3,efgtoa@h+3
  3748  001210                     
  3749                           ;C:\Program Files\Microchip\xc8\v2.36\pic\sources\c99\common\doprnt.c: 488:         u = 
      +                          u/10.0;
  3750  001210  C08E  F001         	movff	efgtoa@u,___fldiv@b
  3751  001214  C08F  F002         	movff	efgtoa@u+1,___fldiv@b+1
  3752  001218  C090  F003         	movff	efgtoa@u+2,___fldiv@b+2
  3753  00121C  C091  F004         	movff	efgtoa@u+3,___fldiv@b+3
  3754  001220  0E00               	movlw	0
  3755  001222  6E05               	movwf	___fldiv@a^0,c
  3756  001224  0E00               	movlw	0
  3757  001226  6E06               	movwf	(___fldiv@a+1)^0,c
  3758  001228  0E20               	movlw	32
  3759  00122A  6E07               	movwf	(___fldiv@a+2)^0,c
  3760  00122C  0E41               	movlw	65
  3761  00122E  6E08               	movwf	(___fldiv@a+3)^0,c
  3762  001230  ECC1  F010         	call	___fldiv	;wreg free
  3763  001234  C001  F08E         	movff	?___fldiv,efgtoa@u
  3764  001238  C002  F08F         	movff	?___fldiv+1,efgtoa@u+1
  3765  00123C  C003  F090         	movff	?___fldiv+2,efgtoa@u+2
  3766  001240  C004  F091         	movff	?___fldiv+3,efgtoa@u+3
  3767  001244                     
  3768                           ;C:\Program Files\Microchip\xc8\v2.36\pic\sources\c99\common\doprnt.c: 489:         --ne
      +                          ;
  3769  001244  0100               	movlb	0	; () banked
  3770  001246  076A               	decf	efgtoa@ne& (0+255),f,b
  3771  001248  A0D8               	btfss	status,0,c
  3772  00124A  076B               	decf	(efgtoa@ne+1)& (0+255),f,b
  3773  00124C                     
  3774                           ; BSR set to: 0
  3775                           ;C:\Program Files\Microchip\xc8\v2.36\pic\sources\c99\common\doprnt.c: 490:         ++i;
  3776  00124C  4B84               	infsnz	efgtoa@i& (0+255),f,b
  3777  00124E  2B85               	incf	(efgtoa@i+1)& (0+255),f,b
  3778  001250                     l3615:
  3779                           
  3780                           ; BSR set to: 0
  3781                           ;C:\Program Files\Microchip\xc8\v2.36\pic\sources\c99\common\doprnt.c: 468:     while ((
      +                          i < m) && (n < (80 - 5))) {
  3782  001250  516C               	movf	efgtoa@m& (0+255),w,b
  3783  001252  5D84               	subwf	efgtoa@i& (0+255),w,b
  3784  001254  5185               	movf	(efgtoa@i+1)& (0+255),w,b
  3785  001256  0A80               	xorlw	128
  3786  001258  6E47               	movwf	??_efgtoa^0,c
  3787  00125A  516D               	movf	(efgtoa@m+1)& (0+255),w,b
  3788  00125C  0A80               	xorlw	128
  3789  00125E  5847               	subwfb	??_efgtoa^0,w,c
  3790  001260  B0D8               	btfsc	status,0,c
  3791  001262  EF35  F009         	goto	u4161
  3792  001266  EF37  F009         	goto	u4160
  3793  00126A                     u4161:
  3794  00126A  EF45  F009         	goto	l3619
  3795  00126E                     u4160:
  3796  00126E                     
  3797                           ; BSR set to: 0
  3798  00126E  BF8D               	btfsc	(efgtoa@n+1)& (0+255),7,b
  3799  001270  EF43  F009         	goto	u4171
  3800  001274  518D               	movf	(efgtoa@n+1)& (0+255),w,b
  3801  001276  E109               	bnz	u4170
  3802  001278  0E4B               	movlw	75
  3803  00127A  5D8C               	subwf	efgtoa@n& (0+255),w,b
  3804  00127C  A0D8               	btfss	status,0,c
  3805  00127E  EF43  F009         	goto	u4171
  3806  001282  EF45  F009         	goto	u4170
  3807  001286                     u4171:
  3808  001286  EF3B  F008         	goto	l3567
  3809  00128A                     u4170:
  3810  00128A                     l3619:
  3811                           
  3812                           ; BSR set to: 0
  3813                           ;C:\Program Files\Microchip\xc8\v2.36\pic\sources\c99\common\doprnt.c: 492:     if (!pp 
      +                          && (flags & (1 << 4))) {
  3814  00128A  5168               	movf	efgtoa@pp& (0+255),w,b
  3815  00128C  1169               	iorwf	(efgtoa@pp+1)& (0+255),w,b
  3816  00128E  A4D8               	btfss	status,2,c
  3817  001290  EF4C  F009         	goto	u4181
  3818  001294  EF4E  F009         	goto	u4180
  3819  001298                     u4181:
  3820  001298  EF5F  F009         	goto	l3627
  3821  00129C                     u4180:
  3822  00129C                     
  3823                           ; BSR set to: 0
  3824  00129C  A9D1               	btfss	_flags& (0+255),4,b
  3825  00129E  EF53  F009         	goto	u4191
  3826  0012A2  EF55  F009         	goto	u4190
  3827  0012A6                     u4191:
  3828  0012A6  EF5F  F009         	goto	l3627
  3829  0012AA                     u4190:
  3830  0012AA                     
  3831                           ; BSR set to: 0
  3832                           ;C:\Program Files\Microchip\xc8\v2.36\pic\sources\c99\common\doprnt.c: 493:         dbuf
      +                          [n++] = '.';
  3833  0012AA  0E00               	movlw	low _dbuf
  3834  0012AC  258C               	addwf	efgtoa@n& (0+255),w,b
  3835  0012AE  6ED9               	movwf	fsr2l,c
  3836  0012B0  0E01               	movlw	high _dbuf
  3837  0012B2  218D               	addwfc	(efgtoa@n+1)& (0+255),w,b
  3838  0012B4  6EDA               	movwf	fsr2h,c
  3839  0012B6  0E2E               	movlw	46
  3840  0012B8  6EDF               	movwf	indf2,c
  3841  0012BA                     
  3842                           ; BSR set to: 0
  3843  0012BA  4B8C               	infsnz	efgtoa@n& (0+255),f,b
  3844  0012BC  2B8D               	incf	(efgtoa@n+1)& (0+255),f,b
  3845  0012BE                     l3627:
  3846                           
  3847                           ; BSR set to: 0
  3848                           ;C:\Program Files\Microchip\xc8\v2.36\pic\sources\c99\common\doprnt.c: 495:     dbuf[n] 
      +                          = '\0';
  3849  0012BE  0E00               	movlw	low _dbuf
  3850  0012C0  258C               	addwf	efgtoa@n& (0+255),w,b
  3851  0012C2  6ED9               	movwf	fsr2l,c
  3852  0012C4  0E01               	movlw	high _dbuf
  3853  0012C6  218D               	addwfc	(efgtoa@n+1)& (0+255),w,b
  3854  0012C8  6EDA               	movwf	fsr2h,c
  3855  0012CA  0E00               	movlw	0
  3856  0012CC  6EDF               	movwf	indf2,c
  3857  0012CE                     
  3858                           ; BSR set to: 0
  3859                           ;C:\Program Files\Microchip\xc8\v2.36\pic\sources\c99\common\doprnt.c: 498:     if (nmod
      +                          e == 'e') {
  3860  0012CE  0E65               	movlw	101
  3861  0012D0  197A               	xorwf	efgtoa@nmode& (0+255),w,b
  3862  0012D2  A4D8               	btfss	status,2,c
  3863  0012D4  EF6E  F009         	goto	u4201
  3864  0012D8  EF70  F009         	goto	u4200
  3865  0012DC                     u4201:
  3866  0012DC  EFD6  F004         	goto	l3429
  3867  0012E0                     u4200:
  3868  0012E0                     
  3869                           ; BSR set to: 0
  3870                           ;C:\Program Files\Microchip\xc8\v2.36\pic\sources\c99\common\doprnt.c: 499:         i = 
      +                          sizeof(dbuf) - 1;
  3871  0012E0  0E00               	movlw	0
  3872  0012E2  6F85               	movwf	(efgtoa@i+1)& (0+255),b
  3873  0012E4  0E4F               	movlw	79
  3874  0012E6  6F84               	movwf	efgtoa@i& (0+255),b
  3875  0012E8                     
  3876                           ; BSR set to: 0
  3877                           ;C:\Program Files\Microchip\xc8\v2.36\pic\sources\c99\common\doprnt.c: 500:         dbuf
      +                          [i] = '\0';
  3878  0012E8  0E00               	movlw	low _dbuf
  3879  0012EA  2584               	addwf	efgtoa@i& (0+255),w,b
  3880  0012EC  6ED9               	movwf	fsr2l,c
  3881  0012EE  0E01               	movlw	high _dbuf
  3882  0012F0  2185               	addwfc	(efgtoa@i+1)& (0+255),w,b
  3883  0012F2  6EDA               	movwf	fsr2h,c
  3884  0012F4  0E00               	movlw	0
  3885  0012F6  6EDF               	movwf	indf2,c
  3886  0012F8                     
  3887                           ; BSR set to: 0
  3888                           ;C:\Program Files\Microchip\xc8\v2.36\pic\sources\c99\common\doprnt.c: 501:         sign
      +                           = 0;
  3889  0012F8  0E00               	movlw	0
  3890  0012FA  6F75               	movwf	(efgtoa@sign+1)& (0+255),b
  3891  0012FC  0E00               	movlw	0
  3892  0012FE  6F74               	movwf	efgtoa@sign& (0+255),b
  3893  001300                     
  3894                           ; BSR set to: 0
  3895                           ;C:\Program Files\Microchip\xc8\v2.36\pic\sources\c99\common\doprnt.c: 502:         if (
      +                          e < 0) {
  3896  001300  BF8B               	btfsc	(efgtoa@e+1)& (0+255),7,b
  3897  001302  EF87  F009         	goto	u4210
  3898  001306  EF85  F009         	goto	u4211
  3899  00130A                     u4211:
  3900  00130A  EF8F  F009         	goto	l3643
  3901  00130E                     u4210:
  3902  00130E                     
  3903                           ; BSR set to: 0
  3904                           ;C:\Program Files\Microchip\xc8\v2.36\pic\sources\c99\common\doprnt.c: 503:             
      +                          sign = 1;
  3905  00130E  0E00               	movlw	0
  3906  001310  6F75               	movwf	(efgtoa@sign+1)& (0+255),b
  3907  001312  0E01               	movlw	1
  3908  001314  6F74               	movwf	efgtoa@sign& (0+255),b
  3909  001316                     
  3910                           ; BSR set to: 0
  3911                           ;C:\Program Files\Microchip\xc8\v2.36\pic\sources\c99\common\doprnt.c: 504:             
      +                          e = -e;
  3912  001316  6D8A               	negf	efgtoa@e& (0+255),b
  3913  001318  1F8B               	comf	(efgtoa@e+1)& (0+255),f,b
  3914  00131A  B0D8               	btfsc	status,0,c
  3915  00131C  2B8B               	incf	(efgtoa@e+1)& (0+255),f,b
  3916  00131E                     l3643:
  3917                           
  3918                           ; BSR set to: 0
  3919                           ;C:\Program Files\Microchip\xc8\v2.36\pic\sources\c99\common\doprnt.c: 506:         p = 
      +                          2;
  3920  00131E  0E00               	movlw	0
  3921  001320  6F77               	movwf	(efgtoa@p+1)& (0+255),b
  3922  001322  0E02               	movlw	2
  3923  001324  6F76               	movwf	efgtoa@p& (0+255),b
  3924                           
  3925                           ;C:\Program Files\Microchip\xc8\v2.36\pic\sources\c99\common\doprnt.c: 507:         whil
      +                          e (e || (0 < p)) {
  3926  001326  EFC0  F009         	goto	l3655
  3927  00132A                     l3645:
  3928                           
  3929                           ; BSR set to: 0
  3930                           ;C:\Program Files\Microchip\xc8\v2.36\pic\sources\c99\common\doprnt.c: 508:             
      +                          --i;
  3931  00132A  0784               	decf	efgtoa@i& (0+255),f,b
  3932  00132C  A0D8               	btfss	status,0,c
  3933  00132E  0785               	decf	(efgtoa@i+1)& (0+255),f,b
  3934  001330                     
  3935                           ; BSR set to: 0
  3936                           ;C:\Program Files\Microchip\xc8\v2.36\pic\sources\c99\common\doprnt.c: 509:             
      +                          dbuf[i] = '0' + (e % 10);
  3937  001330  0E00               	movlw	low _dbuf
  3938  001332  2584               	addwf	efgtoa@i& (0+255),w,b
  3939  001334  6ED9               	movwf	fsr2l,c
  3940  001336  0E01               	movlw	high _dbuf
  3941  001338  2185               	addwfc	(efgtoa@i+1)& (0+255),w,b
  3942  00133A  6EDA               	movwf	fsr2h,c
  3943  00133C  C08A  F001         	movff	efgtoa@e,___awmod@dividend
  3944  001340  C08B  F002         	movff	efgtoa@e+1,___awmod@dividend+1
  3945  001344  0E00               	movlw	0
  3946  001346  6E04               	movwf	(___awmod@divisor+1)^0,c
  3947  001348  0E0A               	movlw	10
  3948  00134A  6E03               	movwf	___awmod@divisor^0,c
  3949  00134C  EC6B  F019         	call	___awmod	;wreg free
  3950  001350  5001               	movf	?___awmod^0,w,c
  3951  001352  0F30               	addlw	48
  3952  001354  6EDF               	movwf	indf2,c
  3953  001356                     
  3954                           ;C:\Program Files\Microchip\xc8\v2.36\pic\sources\c99\common\doprnt.c: 510:             
      +                          e = e / 10;
  3955  001356  C08A  F001         	movff	efgtoa@e,___awdiv@dividend
  3956  00135A  C08B  F002         	movff	efgtoa@e+1,___awdiv@dividend+1
  3957  00135E  0E00               	movlw	0
  3958  001360  6E04               	movwf	(___awdiv@divisor+1)^0,c
  3959  001362  0E0A               	movlw	10
  3960  001364  6E03               	movwf	___awdiv@divisor^0,c
  3961  001366  EC09  F019         	call	___awdiv	;wreg free
  3962  00136A  C001  F08A         	movff	?___awdiv,efgtoa@e
  3963  00136E  C002  F08B         	movff	?___awdiv+1,efgtoa@e+1
  3964  001372                     
  3965                           ;C:\Program Files\Microchip\xc8\v2.36\pic\sources\c99\common\doprnt.c: 511:             
      +                          --p;
  3966  001372  0100               	movlb	0	; () banked
  3967  001374  0776               	decf	efgtoa@p& (0+255),f,b
  3968  001376  A0D8               	btfss	status,0,c
  3969  001378  0777               	decf	(efgtoa@p+1)& (0+255),f,b
  3970  00137A                     
  3971                           ; BSR set to: 0
  3972                           ;C:\Program Files\Microchip\xc8\v2.36\pic\sources\c99\common\doprnt.c: 512:             
      +                          --w;
  3973  00137A  0778               	decf	efgtoa@w& (0+255),f,b
  3974  00137C  A0D8               	btfss	status,0,c
  3975  00137E  0779               	decf	(efgtoa@w+1)& (0+255),f,b
  3976  001380                     l3655:
  3977                           
  3978                           ; BSR set to: 0
  3979                           ;C:\Program Files\Microchip\xc8\v2.36\pic\sources\c99\common\doprnt.c: 507:         whil
      +                          e (e || (0 < p)) {
  3980  001380  518A               	movf	efgtoa@e& (0+255),w,b
  3981  001382  118B               	iorwf	(efgtoa@e+1)& (0+255),w,b
  3982  001384  A4D8               	btfss	status,2,c
  3983  001386  EFC7  F009         	goto	u4221
  3984  00138A  EFC9  F009         	goto	u4220
  3985  00138E                     u4221:
  3986  00138E  EF95  F009         	goto	l3645
  3987  001392                     u4220:
  3988  001392                     
  3989                           ; BSR set to: 0
  3990  001392  BF77               	btfsc	(efgtoa@p+1)& (0+255),7,b
  3991  001394  EFD6  F009         	goto	u4230
  3992  001398  5177               	movf	(efgtoa@p+1)& (0+255),w,b
  3993  00139A  E106               	bnz	u4231
  3994  00139C  0576               	decf	efgtoa@p& (0+255),w,b
  3995  00139E  B0D8               	btfsc	status,0,c
  3996  0013A0  EFD4  F009         	goto	u4231
  3997  0013A4  EFD6  F009         	goto	u4230
  3998  0013A8                     u4231:
  3999  0013A8  EF95  F009         	goto	l3645
  4000  0013AC                     u4230:
  4001  0013AC                     
  4002                           ; BSR set to: 0
  4003                           ;C:\Program Files\Microchip\xc8\v2.36\pic\sources\c99\common\doprnt.c: 514:         --i;
  4004  0013AC  0784               	decf	efgtoa@i& (0+255),f,b
  4005  0013AE  A0D8               	btfss	status,0,c
  4006  0013B0  0785               	decf	(efgtoa@i+1)& (0+255),f,b
  4007  0013B2                     
  4008                           ; BSR set to: 0
  4009                           ;C:\Program Files\Microchip\xc8\v2.36\pic\sources\c99\common\doprnt.c: 515:         dbuf
      +                          [i] = sign ? '-' : '+';
  4010  0013B2  5174               	movf	efgtoa@sign& (0+255),w,b
  4011  0013B4  1175               	iorwf	(efgtoa@sign+1)& (0+255),w,b
  4012  0013B6  A4D8               	btfss	status,2,c
  4013  0013B8  EFE0  F009         	goto	u4241
  4014  0013BC  EFE2  F009         	goto	u4240
  4015  0013C0                     u4241:
  4016  0013C0  EFE8  F009         	goto	l3665
  4017  0013C4                     u4240:
  4018  0013C4                     
  4019                           ; BSR set to: 0
  4020  0013C4  0E00               	movlw	0
  4021  0013C6  6F63               	movwf	(_efgtoa$1058+1)& (0+255),b
  4022  0013C8  0E2B               	movlw	43
  4023  0013CA  6F62               	movwf	_efgtoa$1058& (0+255),b
  4024  0013CC  EFEC  F009         	goto	l3667
  4025  0013D0                     l3665:
  4026                           
  4027                           ; BSR set to: 0
  4028  0013D0  0E00               	movlw	0
  4029  0013D2  6F63               	movwf	(_efgtoa$1058+1)& (0+255),b
  4030  0013D4  0E2D               	movlw	45
  4031  0013D6  6F62               	movwf	_efgtoa$1058& (0+255),b
  4032  0013D8                     l3667:
  4033                           
  4034                           ; BSR set to: 0
  4035  0013D8  0E00               	movlw	low _dbuf
  4036  0013DA  2584               	addwf	efgtoa@i& (0+255),w,b
  4037  0013DC  6ED9               	movwf	fsr2l,c
  4038  0013DE  0E01               	movlw	high _dbuf
  4039  0013E0  2185               	addwfc	(efgtoa@i+1)& (0+255),w,b
  4040  0013E2  6EDA               	movwf	fsr2h,c
  4041  0013E4  C062  FFDF         	movff	_efgtoa$1058,indf2
  4042  0013E8                     
  4043                           ; BSR set to: 0
  4044                           ;C:\Program Files\Microchip\xc8\v2.36\pic\sources\c99\common\doprnt.c: 516:         --w;
  4045  0013E8  0778               	decf	efgtoa@w& (0+255),f,b
  4046  0013EA  A0D8               	btfss	status,0,c
  4047  0013EC  0779               	decf	(efgtoa@w+1)& (0+255),f,b
  4048  0013EE                     
  4049                           ; BSR set to: 0
  4050                           ;C:\Program Files\Microchip\xc8\v2.36\pic\sources\c99\common\doprnt.c: 517:         --i;
  4051  0013EE  0784               	decf	efgtoa@i& (0+255),f,b
  4052  0013F0  A0D8               	btfss	status,0,c
  4053  0013F2  0785               	decf	(efgtoa@i+1)& (0+255),f,b
  4054  0013F4                     
  4055                           ; BSR set to: 0
  4056  0013F4  0EBF               	movlw	191
  4057  0013F6  6E47               	movwf	??_efgtoa^0,c
  4058  0013F8  0EFF               	movlw	255
  4059  0013FA  6E48               	movwf	(??_efgtoa+1)^0,c
  4060  0013FC  5046               	movf	efgtoa@c^0,w,c
  4061  0013FE  6E49               	movwf	(??_efgtoa+2)^0,c
  4062  001400  6A4A               	clrf	(??_efgtoa+3)^0,c
  4063  001402  5047               	movf	??_efgtoa^0,w,c
  4064  001404  2649               	addwf	(??_efgtoa+2)^0,f,c
  4065  001406  5048               	movf	(??_efgtoa+1)^0,w,c
  4066  001408  224A               	addwfc	(??_efgtoa+3)^0,f,c
  4067  00140A  504A               	movf	(??_efgtoa+3)^0,w,c
  4068  00140C  E109               	bnz	u4250
  4069  00140E  0E1A               	movlw	26
  4070  001410  5C49               	subwf	(??_efgtoa+2)^0,w,c
  4071  001412  A0D8               	btfss	status,0,c
  4072  001414  EF0E  F00A         	goto	u4251
  4073  001418  EF10  F00A         	goto	u4250
  4074  00141C                     u4251:
  4075  00141C  EF16  F00A         	goto	l3679
  4076  001420                     u4250:
  4077  001420                     
  4078                           ; BSR set to: 0
  4079  001420  0E00               	movlw	0
  4080  001422  6F65               	movwf	(_efgtoa$1059+1)& (0+255),b
  4081  001424  0E65               	movlw	101
  4082  001426  6F64               	movwf	_efgtoa$1059& (0+255),b
  4083  001428  EF1A  F00A         	goto	l3681
  4084  00142C                     l3679:
  4085                           
  4086                           ; BSR set to: 0
  4087  00142C  0E00               	movlw	0
  4088  00142E  6F65               	movwf	(_efgtoa$1059+1)& (0+255),b
  4089  001430  0E45               	movlw	69
  4090  001432  6F64               	movwf	_efgtoa$1059& (0+255),b
  4091  001434                     l3681:
  4092                           
  4093                           ; BSR set to: 0
  4094  001434  0E00               	movlw	low _dbuf
  4095  001436  2584               	addwf	efgtoa@i& (0+255),w,b
  4096  001438  6ED9               	movwf	fsr2l,c
  4097  00143A  0E01               	movlw	high _dbuf
  4098  00143C  2185               	addwfc	(efgtoa@i+1)& (0+255),w,b
  4099  00143E  6EDA               	movwf	fsr2h,c
  4100  001440  C064  FFDF         	movff	_efgtoa$1059,indf2
  4101  001444                     
  4102                           ; BSR set to: 0
  4103                           ;C:\Program Files\Microchip\xc8\v2.36\pic\sources\c99\common\doprnt.c: 519:         --w;
  4104  001444  0778               	decf	efgtoa@w& (0+255),f,b
  4105  001446  A0D8               	btfss	status,0,c
  4106  001448  0779               	decf	(efgtoa@w+1)& (0+255),f,b
  4107  00144A                     
  4108                           ; BSR set to: 0
  4109                           ;C:\Program Files\Microchip\xc8\v2.36\pic\sources\c99\common\doprnt.c: 520:         strc
      +                          py(&dbuf[n], &dbuf[i]);
  4110  00144A  0E00               	movlw	low _dbuf
  4111  00144C  258C               	addwf	efgtoa@n& (0+255),w,b
  4112  00144E  6E01               	movwf	strcpy@dest^0,c
  4113  001450  0E01               	movlw	high _dbuf
  4114  001452  218D               	addwfc	(efgtoa@n+1)& (0+255),w,b
  4115  001454  6E02               	movwf	(strcpy@dest+1)^0,c
  4116  001456  0E00               	movlw	low _dbuf
  4117  001458  2584               	addwf	efgtoa@i& (0+255),w,b
  4118  00145A  6E03               	movwf	strcpy@src^0,c
  4119  00145C  0E01               	movlw	high _dbuf
  4120  00145E  2185               	addwfc	(efgtoa@i+1)& (0+255),w,b
  4121  001460  6E04               	movwf	(strcpy@src+1)^0,c
  4122  001462  EC24  F01B         	call	_strcpy	;wreg free
  4123  001466  EFD6  F004         	goto	l3429
  4124  00146A                     l853:
  4125  00146A  0012               	return		;funcret
  4126  00146C                     __end_of_efgtoa:
  4127                           	callstack 0
  4128                           
  4129 ;; *************** function _tolower *****************
  4130 ;; Defined at:
  4131 ;;		line 4 in file "C:\Program Files\Microchip\xc8\v2.36\pic\sources\c99\common\tolower.c"
  4132 ;; Parameters:    Size  Location     Type
  4133 ;;  c               2    6[COMRAM] int 
  4134 ;; Auto vars:     Size  Location     Type
  4135 ;;		None
  4136 ;; Return value:  Size  Location     Type
  4137 ;;                  2    6[COMRAM] int 
  4138 ;; Registers used:
  4139 ;;		wreg, status,2, status,0
  4140 ;; Tracked objects:
  4141 ;;		On entry : 0/0
  4142 ;;		On exit  : 0/0
  4143 ;;		Unchanged: 0/0
  4144 ;; Data sizes:     COMRAM   BANK0   BANK1   BANK2   BANK3   BANK4   BANK5   BANK6   BANK7
  4145 ;;      Params:         2       0       0       0       0       0       0       0       0
  4146 ;;      Locals:         0       0       0       0       0       0       0       0       0
  4147 ;;      Temps:          4       0       0       0       0       0       0       0       0
  4148 ;;      Totals:         6       0       0       0       0       0       0       0       0
  4149 ;;Total ram usage:        6 bytes
  4150 ;; Hardware stack levels used: 1
  4151 ;; Hardware stack levels required when called: 1
  4152 ;; This function calls:
  4153 ;;		_isupper
  4154 ;; This function is called by:
  4155 ;;		_efgtoa
  4156 ;;		_vfpfcnvrt
  4157 ;; This function uses a non-reentrant model
  4158 ;;
  4159                           
  4160                           	psect	text9
  4161  003748                     __ptext9:
  4162                           	callstack 0
  4163  003748                     _tolower:
  4164                           	callstack 25
  4165  003748  0EBF               	movlw	191
  4166  00374A  6E09               	movwf	??_tolower^0,c
  4167  00374C  0EFF               	movlw	255
  4168  00374E  6E0A               	movwf	(??_tolower+1)^0,c
  4169  003750  C007  F00B         	movff	tolower@c,??_tolower+2
  4170  003754  C008  F00C         	movff	tolower@c+1,??_tolower+3
  4171  003758  5009               	movf	??_tolower^0,w,c
  4172  00375A  260B               	addwf	(??_tolower+2)^0,f,c
  4173  00375C  500A               	movf	(??_tolower+1)^0,w,c
  4174  00375E  220C               	addwfc	(??_tolower+3)^0,f,c
  4175  003760  500C               	movf	(??_tolower+3)^0,w,c
  4176  003762  E107               	bnz	u3631
  4177  003764  0E1A               	movlw	26
  4178  003766  5C0B               	subwf	(??_tolower+2)^0,w,c
  4179  003768  B0D8               	btfsc	status,0,c
  4180  00376A  EFB9  F01B         	goto	u3631
  4181  00376E  EFBB  F01B         	goto	u3630
  4182  003772                     u3631:
  4183  003772  EFC2  F01B         	goto	l1069
  4184  003776                     u3630:
  4185  003776  0E20               	movlw	32
  4186  003778  1007               	iorwf	tolower@c^0,w,c
  4187  00377A  6E07               	movwf	?_tolower^0,c
  4188  00377C  5008               	movf	(tolower@c+1)^0,w,c
  4189  00377E  6E08               	movwf	(?_tolower+1)^0,c
  4190  003780  EFC6  F01B         	goto	l1072
  4191  003784                     l1069:
  4192  003784  C007  F007         	movff	tolower@c,?_tolower
  4193  003788  C008  F008         	movff	tolower@c+1,?_tolower+1
  4194  00378C                     l1072:
  4195  00378C  0012               	return		;funcret
  4196  00378E                     __end_of_tolower:
  4197                           	callstack 0
  4198                           
  4199 ;; *************** function _isupper *****************
  4200 ;; Defined at:
  4201 ;;		line 5 in file "C:\Program Files\Microchip\xc8\v2.36\pic\sources\c99\common\isupper.c"
  4202 ;; Parameters:    Size  Location     Type
  4203 ;;  c               2    0[COMRAM] int 
  4204 ;; Auto vars:     Size  Location     Type
  4205 ;;		None
  4206 ;; Return value:  Size  Location     Type
  4207 ;;                  2    0[COMRAM] int 
  4208 ;; Registers used:
  4209 ;;		wreg, status,2, status,0
  4210 ;; Tracked objects:
  4211 ;;		On entry : 0/0
  4212 ;;		On exit  : 0/0
  4213 ;;		Unchanged: 0/0
  4214 ;; Data sizes:     COMRAM   BANK0   BANK1   BANK2   BANK3   BANK4   BANK5   BANK6   BANK7
  4215 ;;      Params:         2       0       0       0       0       0       0       0       0
  4216 ;;      Locals:         0       0       0       0       0       0       0       0       0
  4217 ;;      Temps:          4       0       0       0       0       0       0       0       0
  4218 ;;      Totals:         6       0       0       0       0       0       0       0       0
  4219 ;;Total ram usage:        6 bytes
  4220 ;; Hardware stack levels used: 1
  4221 ;; This function calls:
  4222 ;;		Nothing
  4223 ;; This function is called by:
  4224 ;;		_efgtoa
  4225 ;;		_vfpfcnvrt
  4226 ;;		_tolower
  4227 ;; This function uses a non-reentrant model
  4228 ;;
  4229                           
  4230                           	psect	text10
  4231  003898                     __ptext10:
  4232                           	callstack 0
  4233  003898                     _isupper:
  4234                           	callstack 25
  4235  003898  0EBF               	movlw	191
  4236  00389A  6E03               	movwf	??_isupper^0,c
  4237  00389C  0EFF               	movlw	255
  4238  00389E  6E04               	movwf	(??_isupper+1)^0,c
  4239  0038A0  C001  F005         	movff	isupper@c,??_isupper+2
  4240  0038A4  C002  F006         	movff	isupper@c+1,??_isupper+3
  4241  0038A8  5003               	movf	??_isupper^0,w,c
  4242  0038AA  2605               	addwf	(??_isupper+2)^0,f,c
  4243  0038AC  5004               	movf	(??_isupper+1)^0,w,c
  4244  0038AE  2206               	addwfc	(??_isupper+3)^0,f,c
  4245  0038B0  5006               	movf	(??_isupper+3)^0,w,c
  4246  0038B2  E10A               	bnz	u2780
  4247  0038B4  0E1A               	movlw	26
  4248  0038B6  5C05               	subwf	(??_isupper+2)^0,w,c
  4249  0038B8  A0D8               	btfss	status,0,c
  4250  0038BA  EF61  F01C         	goto	u2781
  4251  0038BE  EF64  F01C         	goto	u2780
  4252  0038C2                     u2781:
  4253  0038C2  0E01               	movlw	1
  4254  0038C4  EF65  F01C         	goto	u2790
  4255  0038C8                     u2780:
  4256  0038C8  0E00               	movlw	0
  4257  0038CA                     u2790:
  4258  0038CA  6E01               	movwf	?_isupper^0,c
  4259  0038CC  6A02               	clrf	(?_isupper+1)^0,c
  4260  0038CE  0012               	return		;funcret
  4261  0038D0                     __end_of_isupper:
  4262                           	callstack 0
  4263                           
  4264 ;; *************** function _strcpy *****************
  4265 ;; Defined at:
  4266 ;;		line 3 in file "C:\Program Files\Microchip\xc8\v2.36\pic\sources\c99\common\strcpy.c"
  4267 ;; Parameters:    Size  Location     Type
  4268 ;;  dest            2    0[COMRAM] PTR unsigned char 
  4269 ;;		 -> dbuf(80), 
  4270 ;;  src             2    2[COMRAM] PTR const unsigned char 
  4271 ;;		 -> STR_13(4), STR_12(4), STR_9(4), STR_8(4), 
  4272 ;;		 -> dbuf(80), 
  4273 ;; Auto vars:     Size  Location     Type
  4274 ;;  d               2    8[COMRAM] PTR unsigned char 
  4275 ;;		 -> dbuf(80), 
  4276 ;;  s               2    6[COMRAM] PTR const unsigned char 
  4277 ;;		 -> STR_13(4), STR_12(4), STR_9(4), STR_8(4), 
  4278 ;;		 -> dbuf(80), 
  4279 ;; Return value:  Size  Location     Type
  4280 ;;                  2    0[COMRAM] PTR unsigned char 
  4281 ;; Registers used:
  4282 ;;		wreg, fsr1l, fsr1h, fsr2l, fsr2h, status,2, status,0, tblptrl, tblptrh, tblptru
  4283 ;; Tracked objects:
  4284 ;;		On entry : 0/0
  4285 ;;		On exit  : 0/0
  4286 ;;		Unchanged: 0/0
  4287 ;; Data sizes:     COMRAM   BANK0   BANK1   BANK2   BANK3   BANK4   BANK5   BANK6   BANK7
  4288 ;;      Params:         4       0       0       0       0       0       0       0       0
  4289 ;;      Locals:         4       0       0       0       0       0       0       0       0
  4290 ;;      Temps:          2       0       0       0       0       0       0       0       0
  4291 ;;      Totals:        10       0       0       0       0       0       0       0       0
  4292 ;;Total ram usage:       10 bytes
  4293 ;; Hardware stack levels used: 1
  4294 ;; This function calls:
  4295 ;;		Nothing
  4296 ;; This function is called by:
  4297 ;;		_efgtoa
  4298 ;; This function uses a non-reentrant model
  4299 ;;
  4300                           
  4301                           	psect	text11
  4302  003648                     __ptext11:
  4303                           	callstack 0
  4304  003648                     _strcpy:
  4305                           	callstack 25
  4306  003648  C003  F007         	movff	strcpy@src,strcpy@s
  4307  00364C  C004  F008         	movff	strcpy@src+1,strcpy@s+1
  4308  003650  C001  F009         	movff	strcpy@dest,strcpy@d
  4309  003654  C002  F00A         	movff	strcpy@dest+1,strcpy@d+1
  4310  003658                     l3329:
  4311  003658  5007               	movf	strcpy@s^0,w,c
  4312  00365A  6E05               	movwf	??_strcpy^0,c
  4313  00365C  5008               	movf	(strcpy@s+1)^0,w,c
  4314  00365E  6E06               	movwf	(??_strcpy+1)^0,c
  4315  003660  4A07               	infsnz	strcpy@s^0,f,c
  4316  003662  2A08               	incf	(strcpy@s+1)^0,f,c
  4317  003664  C005  FFF6         	movff	??_strcpy,tblptrl
  4318  003668  C006  FFF7         	movff	??_strcpy+1,tblptrh
  4319  00366C  6AF8               	clrf	tblptru,c
  4320  00366E  C009  FFD9         	movff	strcpy@d,fsr2l
  4321  003672  C00A  FFDA         	movff	strcpy@d+1,fsr2h
  4322  003676  4A09               	infsnz	strcpy@d^0,f,c
  4323  003678  2A0A               	incf	(strcpy@d+1)^0,f,c
  4324  00367A  0E07               	movlw	(high __ramtop+-1)
  4325  00367C  64F7               	cpfsgt	tblptrh,c
  4326  00367E  D003               	bra	u3617
  4327  003680  0008               	tblrd		*
  4328  003682  50F5               	movf	tablat,w,c
  4329  003684  D005               	bra	u3610
  4330  003686                     u3617:
  4331  003686  CFF6 FFE1          	movff	tblptrl,fsr1l
  4332  00368A  CFF7 FFE2          	movff	tblptrh,fsr1h
  4333  00368E  50E7               	movf	indf1,w,c
  4334  003690                     u3610:
  4335  003690  6EDF               	movwf	indf2,c
  4336  003692  50DF               	movf	indf2,w,c
  4337  003694  A4D8               	btfss	status,2,c
  4338  003696  EF4F  F01B         	goto	u3621
  4339  00369A  EF51  F01B         	goto	u3620
  4340  00369E                     u3621:
  4341  00369E  EF2C  F01B         	goto	l3329
  4342  0036A2                     u3620:
  4343  0036A2  0012               	return		;funcret
  4344  0036A4                     __end_of_strcpy:
  4345                           	callstack 0
  4346                           
  4347 ;; *************** function _pad *****************
  4348 ;; Defined at:
  4349 ;;		line 72 in file "C:\Program Files\Microchip\xc8\v2.36\pic\sources\c99\common\doprnt.c"
  4350 ;; Parameters:    Size  Location     Type
  4351 ;;  fp              2   16[COMRAM] PTR struct _IO_FILE
  4352 ;;		 -> sprintf@f(11), 
  4353 ;;  buf             2   18[COMRAM] PTR unsigned char 
  4354 ;;		 -> dbuf(80), 
  4355 ;;  p               2   20[COMRAM] int 
  4356 ;; Auto vars:     Size  Location     Type
  4357 ;;  w               2   25[COMRAM] int 
  4358 ;;  i               2   23[COMRAM] int 
  4359 ;; Return value:  Size  Location     Type
  4360 ;;                  2   16[COMRAM] int 
  4361 ;; Registers used:
  4362 ;;		wreg, fsr1l, fsr1h, fsr2l, fsr2h, status,2, status,0, cstack
  4363 ;; Tracked objects:
  4364 ;;		On entry : 0/0
  4365 ;;		On exit  : 0/0
  4366 ;;		Unchanged: 0/0
  4367 ;; Data sizes:     COMRAM   BANK0   BANK1   BANK2   BANK3   BANK4   BANK5   BANK6   BANK7
  4368 ;;      Params:         6       0       0       0       0       0       0       0       0
  4369 ;;      Locals:         4       0       0       0       0       0       0       0       0
  4370 ;;      Temps:          1       0       0       0       0       0       0       0       0
  4371 ;;      Totals:        11       0       0       0       0       0       0       0       0
  4372 ;;Total ram usage:       11 bytes
  4373 ;; Hardware stack levels used: 1
  4374 ;; Hardware stack levels required when called: 3
  4375 ;; This function calls:
  4376 ;;		_fputc
  4377 ;;		_fputs
  4378 ;;		_strlen
  4379 ;; This function is called by:
  4380 ;;		_efgtoa
  4381 ;; This function uses a non-reentrant model
  4382 ;;
  4383                           
  4384                           	psect	text12
  4385  00314C                     __ptext12:
  4386                           	callstack 0
  4387  00314C                     _pad:
  4388                           	callstack 22
  4389  00314C                     
  4390                           ;C:\Program Files\Microchip\xc8\v2.36\pic\sources\c99\common\doprnt.c: 72: static int pa
      +                          d(FILE *fp, char *buf, int p);C:\Program Files\Microchip\xc8\v2.36\pic\sources\c99\commo
      +                          n\doprnt.c: 73: {;C:\Program Files\Microchip\xc8\v2.36\pic\sources\c99\common\doprnt.c: 
      +                          74:     int i, w;;C:\Program Files\Microchip\xc8\v2.36\pic\sources\c99\common\doprnt.c: 
      +                          77:     if (flags & (1 << 0)) {
  4391  00314C  0100               	movlb	0	; () banked
  4392  00314E  A1D1               	btfss	_flags& (0+255),0,b
  4393  003150  EFAC  F018         	goto	u3501
  4394  003154  EFAE  F018         	goto	u3500
  4395  003158                     u3501:
  4396  003158  EFB8  F018         	goto	l3287
  4397  00315C                     u3500:
  4398  00315C                     
  4399                           ; BSR set to: 0
  4400                           ;C:\Program Files\Microchip\xc8\v2.36\pic\sources\c99\common\doprnt.c: 78:         fputs
      +                          ((const char *)buf, fp);
  4401  00315C  C013  F00A         	movff	pad@buf,fputs@s
  4402  003160  C014  F00B         	movff	pad@buf+1,fputs@s+1
  4403  003164  C011  F00C         	movff	pad@fp,fputs@fp
  4404  003168  C012  F00D         	movff	pad@fp+1,fputs@fp+1
  4405  00316C  ECEA  F01B         	call	_fputs	;wreg free
  4406  003170                     l3287:
  4407                           
  4408                           ;C:\Program Files\Microchip\xc8\v2.36\pic\sources\c99\common\doprnt.c: 82:     w = (p < 
      +                          0) ? 0 : p;
  4409  003170  BE16               	btfsc	(pad@p+1)^0,7,c
  4410  003172  EFBD  F018         	goto	u3511
  4411  003176  EFBF  F018         	goto	u3510
  4412  00317A                     u3511:
  4413  00317A  EFC5  F018         	goto	l3291
  4414  00317E                     u3510:
  4415  00317E  C015  F01A         	movff	pad@p,pad@w
  4416  003182  C016  F01B         	movff	pad@p+1,pad@w+1
  4417  003186  EFC9  F018         	goto	l832
  4418  00318A                     l3291:
  4419  00318A  0E00               	movlw	0
  4420  00318C  6E1B               	movwf	(pad@w+1)^0,c
  4421  00318E  0E00               	movlw	0
  4422  003190  6E1A               	movwf	pad@w^0,c
  4423  003192                     l832:
  4424                           
  4425                           ;C:\Program Files\Microchip\xc8\v2.36\pic\sources\c99\common\doprnt.c: 83:     i = 0;
  4426  003192  0E00               	movlw	0
  4427  003194  6E19               	movwf	(pad@i+1)^0,c
  4428  003196  0E00               	movlw	0
  4429  003198  6E18               	movwf	pad@i^0,c
  4430                           
  4431                           ;C:\Program Files\Microchip\xc8\v2.36\pic\sources\c99\common\doprnt.c: 84:     while (i 
      +                          < w) {
  4432  00319A  EFDB  F018         	goto	l3297
  4433  00319E                     l3293:
  4434                           
  4435                           ;C:\Program Files\Microchip\xc8\v2.36\pic\sources\c99\common\doprnt.c: 85:         fputc
      +                          (' ', fp);
  4436  00319E  0E00               	movlw	0
  4437  0031A0  6E02               	movwf	(fputc@c+1)^0,c
  4438  0031A2  0E20               	movlw	32
  4439  0031A4  6E01               	movwf	fputc@c^0,c
  4440  0031A6  C011  F003         	movff	pad@fp,fputc@fp
  4441  0031AA  C012  F004         	movff	pad@fp+1,fputc@fp+1
  4442  0031AE  EC41  F018         	call	_fputc	;wreg free
  4443  0031B2                     
  4444                           ;C:\Program Files\Microchip\xc8\v2.36\pic\sources\c99\common\doprnt.c: 86:         ++i;
  4445  0031B2  4A18               	infsnz	pad@i^0,f,c
  4446  0031B4  2A19               	incf	(pad@i+1)^0,f,c
  4447  0031B6                     l3297:
  4448                           
  4449                           ;C:\Program Files\Microchip\xc8\v2.36\pic\sources\c99\common\doprnt.c: 84:     while (i 
      +                          < w) {
  4450  0031B6  501A               	movf	pad@w^0,w,c
  4451  0031B8  5C18               	subwf	pad@i^0,w,c
  4452  0031BA  5019               	movf	(pad@i+1)^0,w,c
  4453  0031BC  0A80               	xorlw	128
  4454  0031BE  6E17               	movwf	??_pad^0,c
  4455  0031C0  501B               	movf	(pad@w+1)^0,w,c
  4456  0031C2  0A80               	xorlw	128
  4457  0031C4  5817               	subwfb	??_pad^0,w,c
  4458  0031C6  A0D8               	btfss	status,0,c
  4459  0031C8  EFE8  F018         	goto	u3521
  4460  0031CC  EFEA  F018         	goto	u3520
  4461  0031D0                     u3521:
  4462  0031D0  EFCF  F018         	goto	l3293
  4463  0031D4                     u3520:
  4464  0031D4                     
  4465                           ;C:\Program Files\Microchip\xc8\v2.36\pic\sources\c99\common\doprnt.c: 90:     if (!(fla
      +                          gs & (1 << 0))) {
  4466  0031D4  0100               	movlb	0	; () banked
  4467  0031D6  B1D1               	btfsc	_flags& (0+255),0,b
  4468  0031D8  EFF0  F018         	goto	u3531
  4469  0031DC  EFF2  F018         	goto	u3530
  4470  0031E0                     u3531:
  4471  0031E0  EFFC  F018         	goto	l3301
  4472  0031E4                     u3530:
  4473  0031E4                     
  4474                           ; BSR set to: 0
  4475                           ;C:\Program Files\Microchip\xc8\v2.36\pic\sources\c99\common\doprnt.c: 91:         fputs
      +                          ((const char *)buf, fp);
  4476  0031E4  C013  F00A         	movff	pad@buf,fputs@s
  4477  0031E8  C014  F00B         	movff	pad@buf+1,fputs@s+1
  4478  0031EC  C011  F00C         	movff	pad@fp,fputs@fp
  4479  0031F0  C012  F00D         	movff	pad@fp+1,fputs@fp+1
  4480  0031F4  ECEA  F01B         	call	_fputs	;wreg free
  4481  0031F8                     l3301:
  4482                           
  4483                           ;C:\Program Files\Microchip\xc8\v2.36\pic\sources\c99\common\doprnt.c: 94:     return (i
      +                          nt)(strlen(buf) + (size_t)w);
  4484  0031F8  C013  F001         	movff	pad@buf,strlen@s
  4485  0031FC  C014  F002         	movff	pad@buf+1,strlen@s+1
  4486  003200  ECA0  F01C         	call	_strlen	;wreg free
  4487  003204  501A               	movf	pad@w^0,w,c
  4488  003206  2401               	addwf	?_strlen^0,w,c
  4489  003208  6E11               	movwf	?_pad^0,c
  4490  00320A  501B               	movf	(pad@w+1)^0,w,c
  4491  00320C  2002               	addwfc	(?_strlen+1)^0,w,c
  4492  00320E  6E12               	movwf	(?_pad+1)^0,c
  4493  003210  0012               	return		;funcret
  4494  003212                     __end_of_pad:
  4495                           	callstack 0
  4496                           
  4497 ;; *************** function _strlen *****************
  4498 ;; Defined at:
  4499 ;;		line 5 in file "C:\Program Files\Microchip\xc8\v2.36\pic\sources\c99\common\strlen.c"
  4500 ;; Parameters:    Size  Location     Type
  4501 ;;  s               2    0[COMRAM] PTR const unsigned char 
  4502 ;;		 -> dbuf(80), 
  4503 ;; Auto vars:     Size  Location     Type
  4504 ;;  a               2    2[COMRAM] PTR const unsigned char 
  4505 ;;		 -> dbuf(80), 
  4506 ;; Return value:  Size  Location     Type
  4507 ;;                  2    0[COMRAM] unsigned int 
  4508 ;; Registers used:
  4509 ;;		wreg, fsr2l, fsr2h, status,2, status,0
  4510 ;; Tracked objects:
  4511 ;;		On entry : 0/0
  4512 ;;		On exit  : 0/0
  4513 ;;		Unchanged: 0/0
  4514 ;; Data sizes:     COMRAM   BANK0   BANK1   BANK2   BANK3   BANK4   BANK5   BANK6   BANK7
  4515 ;;      Params:         2       0       0       0       0       0       0       0       0
  4516 ;;      Locals:         2       0       0       0       0       0       0       0       0
  4517 ;;      Temps:          0       0       0       0       0       0       0       0       0
  4518 ;;      Totals:         4       0       0       0       0       0       0       0       0
  4519 ;;Total ram usage:        4 bytes
  4520 ;; Hardware stack levels used: 1
  4521 ;; This function calls:
  4522 ;;		Nothing
  4523 ;; This function is called by:
  4524 ;;		_pad
  4525 ;; This function uses a non-reentrant model
  4526 ;;
  4527                           
  4528                           	psect	text13
  4529  003940                     __ptext13:
  4530                           	callstack 0
  4531  003940                     _strlen:
  4532                           	callstack 24
  4533  003940  C001  F003         	movff	strlen@s,strlen@a
  4534  003944  C002  F004         	movff	strlen@s+1,strlen@a+1
  4535  003948  EFA8  F01C         	goto	l2823
  4536  00394C                     l2821:
  4537  00394C  4A01               	infsnz	strlen@s^0,f,c
  4538  00394E  2A02               	incf	(strlen@s+1)^0,f,c
  4539  003950                     l2823:
  4540  003950  C001  FFD9         	movff	strlen@s,fsr2l
  4541  003954  C002  FFDA         	movff	strlen@s+1,fsr2h
  4542  003958  50DF               	movf	indf2,w,c
  4543  00395A  A4D8               	btfss	status,2,c
  4544  00395C  EFB2  F01C         	goto	u2771
  4545  003960  EFB4  F01C         	goto	u2770
  4546  003964                     u2771:
  4547  003964  EFA6  F01C         	goto	l2821
  4548  003968                     u2770:
  4549  003968  5003               	movf	strlen@a^0,w,c
  4550  00396A  5C01               	subwf	strlen@s^0,w,c
  4551  00396C  6E01               	movwf	?_strlen^0,c
  4552  00396E  5004               	movf	(strlen@a+1)^0,w,c
  4553  003970  5802               	subwfb	(strlen@s+1)^0,w,c
  4554  003972  6E02               	movwf	(?_strlen+1)^0,c
  4555  003974  0012               	return		;funcret
  4556  003976                     __end_of_strlen:
  4557                           	callstack 0
  4558                           
  4559 ;; *************** function _fputs *****************
  4560 ;; Defined at:
  4561 ;;		line 8 in file "C:\Program Files\Microchip\xc8\v2.36\pic\sources\c99\common\nf_fputs.c"
  4562 ;; Parameters:    Size  Location     Type
  4563 ;;  s               2    9[COMRAM] PTR const unsigned char 
  4564 ;;		 -> dbuf(80), 
  4565 ;;  fp              2   11[COMRAM] PTR struct _IO_FILE
  4566 ;;		 -> sprintf@f(11), 
  4567 ;; Auto vars:     Size  Location     Type
  4568 ;;  i               2   14[COMRAM] int 
  4569 ;;  c               1   13[COMRAM] unsigned char 
  4570 ;; Return value:  Size  Location     Type
  4571 ;;                  2    9[COMRAM] int 
  4572 ;; Registers used:
  4573 ;;		wreg, fsr1l, fsr1h, fsr2l, fsr2h, status,2, status,0, cstack
  4574 ;; Tracked objects:
  4575 ;;		On entry : 0/0
  4576 ;;		On exit  : 0/0
  4577 ;;		Unchanged: 0/0
  4578 ;; Data sizes:     COMRAM   BANK0   BANK1   BANK2   BANK3   BANK4   BANK5   BANK6   BANK7
  4579 ;;      Params:         4       0       0       0       0       0       0       0       0
  4580 ;;      Locals:         3       0       0       0       0       0       0       0       0
  4581 ;;      Temps:          0       0       0       0       0       0       0       0       0
  4582 ;;      Totals:         7       0       0       0       0       0       0       0       0
  4583 ;;Total ram usage:        7 bytes
  4584 ;; Hardware stack levels used: 1
  4585 ;; Hardware stack levels required when called: 2
  4586 ;; This function calls:
  4587 ;;		_fputc
  4588 ;; This function is called by:
  4589 ;;		_pad
  4590 ;; This function uses a non-reentrant model
  4591 ;;
  4592                           
  4593                           	psect	text14
  4594  0037D4                     __ptext14:
  4595                           	callstack 0
  4596  0037D4                     _fputs:
  4597                           	callstack 22
  4598  0037D4  0E00               	movlw	0
  4599  0037D6  6E10               	movwf	(fputs@i+1)^0,c
  4600  0037D8  0E00               	movlw	0
  4601  0037DA  6E0F               	movwf	fputs@i^0,c
  4602  0037DC  EFFB  F01B         	goto	l2817
  4603  0037E0                     l2813:
  4604  0037E0  C00E  F001         	movff	fputs@c,fputc@c
  4605  0037E4  6A02               	clrf	(fputc@c+1)^0,c
  4606  0037E6  C00C  F003         	movff	fputs@fp,fputc@fp
  4607  0037EA  C00D  F004         	movff	fputs@fp+1,fputc@fp+1
  4608  0037EE  EC41  F018         	call	_fputc	;wreg free
  4609  0037F2  4A0F               	infsnz	fputs@i^0,f,c
  4610  0037F4  2A10               	incf	(fputs@i+1)^0,f,c
  4611  0037F6                     l2817:
  4612  0037F6  500F               	movf	fputs@i^0,w,c
  4613  0037F8  240A               	addwf	fputs@s^0,w,c
  4614  0037FA  6ED9               	movwf	fsr2l,c
  4615  0037FC  5010               	movf	(fputs@i+1)^0,w,c
  4616  0037FE  200B               	addwfc	(fputs@s+1)^0,w,c
  4617  003800  6EDA               	movwf	fsr2h,c
  4618  003802  50DF               	movf	indf2,w,c
  4619  003804  6E0E               	movwf	fputs@c^0,c
  4620  003806  500E               	movf	fputs@c^0,w,c
  4621  003808  A4D8               	btfss	status,2,c
  4622  00380A  EF09  F01C         	goto	u2761
  4623  00380E  EF0B  F01C         	goto	u2760
  4624  003812                     u2761:
  4625  003812  EFF0  F01B         	goto	l2813
  4626  003816                     u2760:
  4627  003816  0012               	return		;funcret
  4628  003818                     __end_of_fputs:
  4629                           	callstack 0
  4630                           
  4631 ;; *************** function _fputc *****************
  4632 ;; Defined at:
  4633 ;;		line 8 in file "C:\Program Files\Microchip\xc8\v2.36\pic\sources\c99\common\nf_fputc.c"
  4634 ;; Parameters:    Size  Location     Type
  4635 ;;  c               2    0[COMRAM] int 
  4636 ;;  fp              2    2[COMRAM] PTR struct _IO_FILE
  4637 ;;		 -> sprintf@f(11), 
  4638 ;; Auto vars:     Size  Location     Type
  4639 ;;		None
  4640 ;; Return value:  Size  Location     Type
  4641 ;;                  2    0[COMRAM] int 
  4642 ;; Registers used:
  4643 ;;		wreg, fsr1l, fsr1h, fsr2l, fsr2h, status,2, status,0, cstack
  4644 ;; Tracked objects:
  4645 ;;		On entry : 0/0
  4646 ;;		On exit  : 0/0
  4647 ;;		Unchanged: 0/0
  4648 ;; Data sizes:     COMRAM   BANK0   BANK1   BANK2   BANK3   BANK4   BANK5   BANK6   BANK7
  4649 ;;      Params:         4       0       0       0       0       0       0       0       0
  4650 ;;      Locals:         0       0       0       0       0       0       0       0       0
  4651 ;;      Temps:          5       0       0       0       0       0       0       0       0
  4652 ;;      Totals:         9       0       0       0       0       0       0       0       0
  4653 ;;Total ram usage:        9 bytes
  4654 ;; Hardware stack levels used: 1
  4655 ;; Hardware stack levels required when called: 1
  4656 ;; This function calls:
  4657 ;;		_putch
  4658 ;; This function is called by:
  4659 ;;		_pad
  4660 ;;		_vfpfcnvrt
  4661 ;;		_fputs
  4662 ;; This function uses a non-reentrant model
  4663 ;;
  4664                           
  4665                           	psect	text15
  4666  003082                     __ptext15:
  4667                           	callstack 0
  4668  003082                     _fputc:
  4669                           	callstack 25
  4670  003082  5003               	movf	fputc@fp^0,w,c
  4671  003084  1004               	iorwf	(fputc@fp+1)^0,w,c
  4672  003086  B4D8               	btfsc	status,2,c
  4673  003088  EF48  F018         	goto	u2331
  4674  00308C  EF4A  F018         	goto	u2330
  4675  003090                     u2331:
  4676  003090  EF53  F018         	goto	l2599
  4677  003094                     u2330:
  4678  003094  5003               	movf	fputc@fp^0,w,c
  4679  003096  1004               	iorwf	(fputc@fp+1)^0,w,c
  4680  003098  A4D8               	btfss	status,2,c
  4681  00309A  EF51  F018         	goto	u2341
  4682  00309E  EF53  F018         	goto	u2340
  4683  0030A2                     u2341:
  4684  0030A2  EF58  F018         	goto	l2601
  4685  0030A6                     u2340:
  4686  0030A6                     l2599:
  4687  0030A6  5001               	movf	fputc@c^0,w,c
  4688  0030A8  EC22  F01D         	call	_putch
  4689  0030AC  EFA5  F018         	goto	l1032
  4690  0030B0                     l2601:
  4691  0030B0  EE20 F009          	lfsr	2,9
  4692  0030B4  5003               	movf	fputc@fp^0,w,c
  4693  0030B6  26D9               	addwf	fsr2l,f,c
  4694  0030B8  5004               	movf	(fputc@fp+1)^0,w,c
  4695  0030BA  22DA               	addwfc	fsr2h,f,c
  4696  0030BC  50DE               	movf	postinc2,w,c
  4697  0030BE  10DE               	iorwf	postinc2,w,c
  4698  0030C0  B4D8               	btfsc	status,2,c
  4699  0030C2  EF65  F018         	goto	u2351
  4700  0030C6  EF67  F018         	goto	u2350
  4701  0030CA                     u2351:
  4702  0030CA  EF82  F018         	goto	l2605
  4703  0030CE                     u2350:
  4704  0030CE  EE20 F009          	lfsr	2,9
  4705  0030D2  5003               	movf	fputc@fp^0,w,c
  4706  0030D4  26D9               	addwf	fsr2l,f,c
  4707  0030D6  5004               	movf	(fputc@fp+1)^0,w,c
  4708  0030D8  22DA               	addwfc	fsr2h,f,c
  4709  0030DA  EE10 F003          	lfsr	1,3
  4710  0030DE  5003               	movf	fputc@fp^0,w,c
  4711  0030E0  26E1               	addwf	fsr1l,f,c
  4712  0030E2  5004               	movf	(fputc@fp+1)^0,w,c
  4713  0030E4  22E2               	addwfc	fsr1h,f,c
  4714  0030E6  50DE               	movf	postinc2,w,c
  4715  0030E8  5CE6               	subwf	postinc1,w,c
  4716  0030EA  50E6               	movf	postinc1,w,c
  4717  0030EC  0A80               	xorlw	128
  4718  0030EE  6E09               	movwf	(??_fputc+4)^0,c
  4719  0030F0  50DE               	movf	postinc2,w,c
  4720  0030F2  0A80               	xorlw	128
  4721  0030F4  5809               	subwfb	(??_fputc+4)^0,w,c
  4722  0030F6  B0D8               	btfsc	status,0,c
  4723  0030F8  EF80  F018         	goto	u2361
  4724  0030FC  EF82  F018         	goto	u2360
  4725  003100                     u2361:
  4726  003100  EFA5  F018         	goto	l1032
  4727  003104                     u2360:
  4728  003104                     l2605:
  4729  003104  EE20 F003          	lfsr	2,3
  4730  003108  5003               	movf	fputc@fp^0,w,c
  4731  00310A  26D9               	addwf	fsr2l,f,c
  4732  00310C  5004               	movf	(fputc@fp+1)^0,w,c
  4733  00310E  22DA               	addwfc	fsr2h,f,c
  4734  003110  CFDE F005          	movff	postinc2,??_fputc
  4735  003114  CFDD F006          	movff	postdec2,??_fputc+1
  4736  003118  C003  FFD9         	movff	fputc@fp,fsr2l
  4737  00311C  C004  FFDA         	movff	fputc@fp+1,fsr2h
  4738  003120  CFDE F007          	movff	postinc2,??_fputc+2
  4739  003124  CFDD F008          	movff	postdec2,??_fputc+3
  4740  003128  5005               	movf	??_fputc^0,w,c
  4741  00312A  2407               	addwf	(??_fputc+2)^0,w,c
  4742  00312C  6ED9               	movwf	fsr2l,c
  4743  00312E  5006               	movf	(??_fputc+1)^0,w,c
  4744  003130  2008               	addwfc	(??_fputc+3)^0,w,c
  4745  003132  6EDA               	movwf	fsr2h,c
  4746  003134  C001  FFDF         	movff	fputc@c,indf2
  4747  003138  EE20 F003          	lfsr	2,3
  4748  00313C  5003               	movf	fputc@fp^0,w,c
  4749  00313E  26D9               	addwf	fsr2l,f,c
  4750  003140  5004               	movf	(fputc@fp+1)^0,w,c
  4751  003142  22DA               	addwfc	fsr2h,f,c
  4752  003144  2ADE               	incf	postinc2,f,c
  4753  003146  0E00               	movlw	0
  4754  003148  22DD               	addwfc	postdec2,f,c
  4755  00314A                     l1032:
  4756  00314A  0012               	return		;funcret
  4757  00314C                     __end_of_fputc:
  4758                           	callstack 0
  4759                           
  4760 ;; *************** function _putch *****************
  4761 ;; Defined at:
  4762 ;;		line 7 in file "C:\Program Files\Microchip\xc8\v2.36\pic\sources\c99\common\putch.c"
  4763 ;; Parameters:    Size  Location     Type
  4764 ;;  c               1    wreg     unsigned char 
  4765 ;; Auto vars:     Size  Location     Type
  4766 ;;  c               1    0[COMRAM] unsigned char 
  4767 ;; Return value:  Size  Location     Type
  4768 ;;                  1    wreg      void 
  4769 ;; Registers used:
  4770 ;;		wreg
  4771 ;; Tracked objects:
  4772 ;;		On entry : 0/0
  4773 ;;		On exit  : 0/0
  4774 ;;		Unchanged: 0/0
  4775 ;; Data sizes:     COMRAM   BANK0   BANK1   BANK2   BANK3   BANK4   BANK5   BANK6   BANK7
  4776 ;;      Params:         0       0       0       0       0       0       0       0       0
  4777 ;;      Locals:         0       0       0       0       0       0       0       0       0
  4778 ;;      Temps:          0       0       0       0       0       0       0       0       0
  4779 ;;      Totals:         0       0       0       0       0       0       0       0       0
  4780 ;;Total ram usage:        0 bytes
  4781 ;; Hardware stack levels used: 1
  4782 ;; This function calls:
  4783 ;;		Nothing
  4784 ;; This function is called by:
  4785 ;;		_fputc
  4786 ;; This function uses a non-reentrant model
  4787 ;;
  4788                           
  4789                           	psect	text16
  4790  003A44                     __ptext16:
  4791                           	callstack 0
  4792  003A44                     _putch:
  4793                           	callstack 25
  4794  003A44  0012               	return		;funcret
  4795  003A46                     __end_of_putch:
  4796                           	callstack 0
  4797                           
  4798 ;; *************** function _floorf *****************
  4799 ;; Defined at:
  4800 ;;		line 3 in file "C:\Program Files\Microchip\xc8\v2.36\pic\sources\c99\common\floorf.c"
  4801 ;; Parameters:    Size  Location     Type
  4802 ;;  x               4   25[COMRAM] float 
  4803 ;; Auto vars:     Size  Location     Type
  4804 ;;  u               4   41[COMRAM] struct .
  4805 ;;  m               4   35[COMRAM] unsigned long 
  4806 ;;  e               2   39[COMRAM] int 
  4807 ;; Return value:  Size  Location     Type
  4808 ;;                  4   25[COMRAM] float 
  4809 ;; Registers used:
  4810 ;;		wreg, status,2, status,0
  4811 ;; Tracked objects:
  4812 ;;		On entry : 0/0
  4813 ;;		On exit  : 0/0
  4814 ;;		Unchanged: 0/0
  4815 ;; Data sizes:     COMRAM   BANK0   BANK1   BANK2   BANK3   BANK4   BANK5   BANK6   BANK7
  4816 ;;      Params:         4       0       0       0       0       0       0       0       0
  4817 ;;      Locals:        10       0       0       0       0       0       0       0       0
  4818 ;;      Temps:          6       0       0       0       0       0       0       0       0
  4819 ;;      Totals:        20       0       0       0       0       0       0       0       0
  4820 ;;Total ram usage:       20 bytes
  4821 ;; Hardware stack levels used: 1
  4822 ;; This function calls:
  4823 ;;		Nothing
  4824 ;; This function is called by:
  4825 ;;		_efgtoa
  4826 ;; This function uses a non-reentrant model
  4827 ;;
  4828                           
  4829                           	psect	text17
  4830  00251C                     __ptext17:
  4831                           	callstack 0
  4832  00251C                     _floorf:
  4833                           	callstack 25
  4834  00251C  C0C3  F02A         	movff	floorf@F526,floorf@u
  4835  002520  C0C4  F02B         	movff	floorf@F526+1,floorf@u+1
  4836  002524  C0C5  F02C         	movff	floorf@F526+2,floorf@u+2
  4837  002528  C0C6  F02D         	movff	floorf@F526+3,floorf@u+3
  4838  00252C  C01A  F02A         	movff	floorf@x,floorf@u
  4839  002530  C01B  F02B         	movff	floorf@x+1,floorf@u+1
  4840  002534  C01C  F02C         	movff	floorf@x+2,floorf@u+2
  4841  002538  C01D  F02D         	movff	floorf@x+3,floorf@u+3
  4842  00253C  0E81               	movlw	129
  4843  00253E  6E1E               	movwf	??_floorf^0,c
  4844  002540  0EFF               	movlw	255
  4845  002542  6E1F               	movwf	(??_floorf+1)^0,c
  4846  002544  C02A  F020         	movff	floorf@u,??_floorf+2
  4847  002548  C02B  F021         	movff	floorf@u+1,??_floorf+3
  4848  00254C  C02C  F022         	movff	floorf@u+2,??_floorf+4
  4849  002550  C02D  F023         	movff	floorf@u+3,??_floorf+5
  4850  002554  0E18               	movlw	24
  4851  002556  EFB2  F012         	goto	u3640
  4852  00255A                     u3645:
  4853  00255A  90D8               	bcf	status,0,c
  4854  00255C  3223               	rrcf	(??_floorf+5)^0,f,c
  4855  00255E  3222               	rrcf	(??_floorf+4)^0,f,c
  4856  002560  3221               	rrcf	(??_floorf+3)^0,f,c
  4857  002562  3220               	rrcf	(??_floorf+2)^0,f,c
  4858  002564                     u3640:
  4859  002564  2EE8               	decfsz	wreg,f,c
  4860  002566  EFAD  F012         	goto	u3645
  4861  00256A  5020               	movf	(??_floorf+2)^0,w,c
  4862  00256C  241E               	addwf	??_floorf^0,w,c
  4863  00256E  6E28               	movwf	floorf@e^0,c
  4864  002570  0E00               	movlw	0
  4865  002572  201F               	addwfc	(??_floorf+1)^0,w,c
  4866  002574  6E29               	movwf	(floorf@e+1)^0,c
  4867  002576  BE29               	btfsc	(floorf@e+1)^0,7,c
  4868  002578  EFC7  F012         	goto	u3651
  4869  00257C  5029               	movf	(floorf@e+1)^0,w,c
  4870  00257E  E109               	bnz	u3650
  4871  002580  0E17               	movlw	23
  4872  002582  5C28               	subwf	floorf@e^0,w,c
  4873  002584  A0D8               	btfss	status,0,c
  4874  002586  EFC7  F012         	goto	u3651
  4875  00258A  EFC9  F012         	goto	u3650
  4876  00258E                     u3651:
  4877  00258E  EFD3  F012         	goto	l3347
  4878  002592                     u3650:
  4879  002592                     l3345:
  4880  002592  C01A  F01A         	movff	floorf@x,?_floorf
  4881  002596  C01B  F01B         	movff	floorf@x+1,?_floorf+1
  4882  00259A  C01C  F01C         	movff	floorf@x+2,?_floorf+2
  4883  00259E  C01D  F01D         	movff	floorf@x+3,?_floorf+3
  4884  0025A2  EF96  F013         	goto	l993
  4885  0025A6                     l3347:
  4886  0025A6  BE29               	btfsc	(floorf@e+1)^0,7,c
  4887  0025A8  EFD8  F012         	goto	u3661
  4888  0025AC  EFDA  F012         	goto	u3660
  4889  0025B0                     u3661:
  4890  0025B0  EF4A  F013         	goto	l3357
  4891  0025B4                     u3660:
  4892  0025B4  C028  F01E         	movff	floorf@e,??_floorf
  4893  0025B8  0EFF               	movlw	255
  4894  0025BA  6E1F               	movwf	(??_floorf+1)^0,c
  4895  0025BC  0EFF               	movlw	255
  4896  0025BE  6E20               	movwf	(??_floorf+2)^0,c
  4897  0025C0  0E7F               	movlw	127
  4898  0025C2  6E21               	movwf	(??_floorf+3)^0,c
  4899  0025C4  0E00               	movlw	0
  4900  0025C6  6E22               	movwf	(??_floorf+4)^0,c
  4901  0025C8                     u3675:
  4902  0025C8  661E               	tstfsz	??_floorf^0,c
  4903  0025CA  EFE9  F012         	goto	u3676
  4904  0025CE  EFF1  F012         	goto	u3677
  4905  0025D2                     u3676:
  4906  0025D2  3422               	rlcf	(??_floorf+4)^0,w,c
  4907  0025D4  3222               	rrcf	(??_floorf+4)^0,f,c
  4908  0025D6  3221               	rrcf	(??_floorf+3)^0,f,c
  4909  0025D8  3220               	rrcf	(??_floorf+2)^0,f,c
  4910  0025DA  321F               	rrcf	(??_floorf+1)^0,f,c
  4911  0025DC  2E1E               	decfsz	??_floorf^0,f,c
  4912  0025DE  EFE4  F012         	goto	u3675
  4913  0025E2                     u3677:
  4914  0025E2  C01F  F024         	movff	??_floorf+1,floorf@m
  4915  0025E6  C020  F025         	movff	??_floorf+2,floorf@m+1
  4916  0025EA  C021  F026         	movff	??_floorf+3,floorf@m+2
  4917  0025EE  C022  F027         	movff	??_floorf+4,floorf@m+3
  4918  0025F2  5024               	movf	floorf@m^0,w,c
  4919  0025F4  142A               	andwf	floorf@u^0,w,c
  4920  0025F6  6E1E               	movwf	??_floorf^0,c
  4921  0025F8  5025               	movf	(floorf@m+1)^0,w,c
  4922  0025FA  142B               	andwf	(floorf@u+1)^0,w,c
  4923  0025FC  6E1F               	movwf	(??_floorf+1)^0,c
  4924  0025FE  5026               	movf	(floorf@m+2)^0,w,c
  4925  002600  142C               	andwf	(floorf@u+2)^0,w,c
  4926  002602  6E20               	movwf	(??_floorf+2)^0,c
  4927  002604  5027               	movf	(floorf@m+3)^0,w,c
  4928  002606  142D               	andwf	(floorf@u+3)^0,w,c
  4929  002608  6E21               	movwf	(??_floorf+3)^0,c
  4930  00260A  501E               	movf	??_floorf^0,w,c
  4931  00260C  101F               	iorwf	(??_floorf+1)^0,w,c
  4932  00260E  1020               	iorwf	(??_floorf+2)^0,w,c
  4933  002610  1021               	iorwf	(??_floorf+3)^0,w,c
  4934  002612  A4D8               	btfss	status,2,c
  4935  002614  EF0E  F013         	goto	u3681
  4936  002618  EF10  F013         	goto	u3680
  4937  00261C                     u3681:
  4938  00261C  EF12  F013         	goto	l3353
  4939  002620                     u3680:
  4940  002620  EFC9  F012         	goto	l3345
  4941  002624                     l3353:
  4942  002624  C02A  F01E         	movff	floorf@u,??_floorf
  4943  002628  C02B  F01F         	movff	floorf@u+1,??_floorf+1
  4944  00262C  C02C  F020         	movff	floorf@u+2,??_floorf+2
  4945  002630  C02D  F021         	movff	floorf@u+3,??_floorf+3
  4946  002634  0E20               	movlw	32
  4947  002636  EF22  F013         	goto	u3690
  4948  00263A                     u3695:
  4949  00263A  90D8               	bcf	status,0,c
  4950  00263C  3221               	rrcf	(??_floorf+3)^0,f,c
  4951  00263E  3220               	rrcf	(??_floorf+2)^0,f,c
  4952  002640  321F               	rrcf	(??_floorf+1)^0,f,c
  4953  002642  321E               	rrcf	??_floorf^0,f,c
  4954  002644                     u3690:
  4955  002644  2EE8               	decfsz	wreg,f,c
  4956  002646  EF1D  F013         	goto	u3695
  4957  00264A  501E               	movf	??_floorf^0,w,c
  4958  00264C  101F               	iorwf	(??_floorf+1)^0,w,c
  4959  00264E  1020               	iorwf	(??_floorf+2)^0,w,c
  4960  002650  1021               	iorwf	(??_floorf+3)^0,w,c
  4961  002652  B4D8               	btfsc	status,2,c
  4962  002654  EF2E  F013         	goto	u3701
  4963  002658  EF30  F013         	goto	u3700
  4964  00265C                     u3701:
  4965  00265C  EF38  F013         	goto	l996
  4966  002660                     u3700:
  4967  002660  5024               	movf	floorf@m^0,w,c
  4968  002662  262A               	addwf	floorf@u^0,f,c
  4969  002664  5025               	movf	(floorf@m+1)^0,w,c
  4970  002666  222B               	addwfc	(floorf@u+1)^0,f,c
  4971  002668  5026               	movf	(floorf@m+2)^0,w,c
  4972  00266A  222C               	addwfc	(floorf@u+2)^0,f,c
  4973  00266C  5027               	movf	(floorf@m+3)^0,w,c
  4974  00266E  222D               	addwfc	(floorf@u+3)^0,f,c
  4975  002670                     l996:
  4976  002670  1C24               	comf	floorf@m^0,w,c
  4977  002672  6E1E               	movwf	??_floorf^0,c
  4978  002674  1C25               	comf	(floorf@m+1)^0,w,c
  4979  002676  6E1F               	movwf	(??_floorf+1)^0,c
  4980  002678  1C26               	comf	(floorf@m+2)^0,w,c
  4981  00267A  6E20               	movwf	(??_floorf+2)^0,c
  4982  00267C  1C27               	comf	(floorf@m+3)^0,w,c
  4983  00267E  6E21               	movwf	(??_floorf+3)^0,c
  4984  002680  501E               	movf	??_floorf^0,w,c
  4985  002682  162A               	andwf	floorf@u^0,f,c
  4986  002684  501F               	movf	(??_floorf+1)^0,w,c
  4987  002686  162B               	andwf	(floorf@u+1)^0,f,c
  4988  002688  5020               	movf	(??_floorf+2)^0,w,c
  4989  00268A  162C               	andwf	(floorf@u+2)^0,f,c
  4990  00268C  5021               	movf	(??_floorf+3)^0,w,c
  4991  00268E  162D               	andwf	(floorf@u+3)^0,f,c
  4992  002690  EF8E  F013         	goto	l3365
  4993  002694                     l3357:
  4994  002694  C02A  F01E         	movff	floorf@u,??_floorf
  4995  002698  C02B  F01F         	movff	floorf@u+1,??_floorf+1
  4996  00269C  C02C  F020         	movff	floorf@u+2,??_floorf+2
  4997  0026A0  C02D  F021         	movff	floorf@u+3,??_floorf+3
  4998  0026A4  0E20               	movlw	32
  4999  0026A6  EF5A  F013         	goto	u3710
  5000  0026AA                     u3715:
  5001  0026AA  90D8               	bcf	status,0,c
  5002  0026AC  3221               	rrcf	(??_floorf+3)^0,f,c
  5003  0026AE  3220               	rrcf	(??_floorf+2)^0,f,c
  5004  0026B0  321F               	rrcf	(??_floorf+1)^0,f,c
  5005  0026B2  321E               	rrcf	??_floorf^0,f,c
  5006  0026B4                     u3710:
  5007  0026B4  2EE8               	decfsz	wreg,f,c
  5008  0026B6  EF55  F013         	goto	u3715
  5009  0026BA  501E               	movf	??_floorf^0,w,c
  5010  0026BC  101F               	iorwf	(??_floorf+1)^0,w,c
  5011  0026BE  1020               	iorwf	(??_floorf+2)^0,w,c
  5012  0026C0  1021               	iorwf	(??_floorf+3)^0,w,c
  5013  0026C2  A4D8               	btfss	status,2,c
  5014  0026C4  EF66  F013         	goto	u3721
  5015  0026C8  EF68  F013         	goto	u3720
  5016  0026CC                     u3721:
  5017  0026CC  EF72  F013         	goto	l3361
  5018  0026D0                     u3720:
  5019  0026D0  0E00               	movlw	0
  5020  0026D2  6E2A               	movwf	floorf@u^0,c
  5021  0026D4  0E00               	movlw	0
  5022  0026D6  6E2B               	movwf	(floorf@u+1)^0,c
  5023  0026D8  0E00               	movlw	0
  5024  0026DA  6E2C               	movwf	(floorf@u+2)^0,c
  5025  0026DC  0E00               	movlw	0
  5026  0026DE  6E2D               	movwf	(floorf@u+3)^0,c
  5027  0026E0  EF8E  F013         	goto	l3365
  5028  0026E4                     l3361:
  5029  0026E4  90D8               	bcf	status,0,c
  5030  0026E6  342A               	rlcf	floorf@u^0,w,c
  5031  0026E8  6E1E               	movwf	??_floorf^0,c
  5032  0026EA  342B               	rlcf	(floorf@u+1)^0,w,c
  5033  0026EC  6E1F               	movwf	(??_floorf+1)^0,c
  5034  0026EE  342C               	rlcf	(floorf@u+2)^0,w,c
  5035  0026F0  6E20               	movwf	(??_floorf+2)^0,c
  5036  0026F2  342D               	rlcf	(floorf@u+3)^0,w,c
  5037  0026F4  6E21               	movwf	(??_floorf+3)^0,c
  5038  0026F6  501E               	movf	??_floorf^0,w,c
  5039  0026F8  101F               	iorwf	(??_floorf+1)^0,w,c
  5040  0026FA  1020               	iorwf	(??_floorf+2)^0,w,c
  5041  0026FC  1021               	iorwf	(??_floorf+3)^0,w,c
  5042  0026FE  B4D8               	btfsc	status,2,c
  5043  002700  EF84  F013         	goto	u3731
  5044  002704  EF86  F013         	goto	u3730
  5045  002708                     u3731:
  5046  002708  EF8E  F013         	goto	l3365
  5047  00270C                     u3730:
  5048  00270C  0E00               	movlw	0
  5049  00270E  6E2A               	movwf	floorf@u^0,c
  5050  002710  0E00               	movlw	0
  5051  002712  6E2B               	movwf	(floorf@u+1)^0,c
  5052  002714  0E80               	movlw	128
  5053  002716  6E2C               	movwf	(floorf@u+2)^0,c
  5054  002718  0EBF               	movlw	191
  5055  00271A  6E2D               	movwf	(floorf@u+3)^0,c
  5056  00271C                     l3365:
  5057  00271C  C02A  F01A         	movff	floorf@u,?_floorf
  5058  002720  C02B  F01B         	movff	floorf@u+1,?_floorf+1
  5059  002724  C02C  F01C         	movff	floorf@u+2,?_floorf+2
  5060  002728  C02D  F01D         	movff	floorf@u+3,?_floorf+3
  5061  00272C                     l993:
  5062  00272C  0012               	return		;funcret
  5063  00272E                     __end_of_floorf:
  5064                           	callstack 0
  5065                           
  5066 ;; *************** function ___fpclassifyf *****************
  5067 ;; Defined at:
  5068 ;;		line 4 in file "C:\Program Files\Microchip\xc8\v2.36\pic\sources\c99\common\__fpclassifyf.c"
  5069 ;; Parameters:    Size  Location     Type
  5070 ;;  x               4    0[COMRAM] float 
  5071 ;; Auto vars:     Size  Location     Type
  5072 ;;  u               4   10[COMRAM] struct .
  5073 ;;  e               2    8[COMRAM] int 
  5074 ;; Return value:  Size  Location     Type
  5075 ;;                  2    0[COMRAM] int 
  5076 ;; Registers used:
  5077 ;;		wreg, status,2, status,0
  5078 ;; Tracked objects:
  5079 ;;		On entry : 0/0
  5080 ;;		On exit  : 0/0
  5081 ;;		Unchanged: 0/0
  5082 ;; Data sizes:     COMRAM   BANK0   BANK1   BANK2   BANK3   BANK4   BANK5   BANK6   BANK7
  5083 ;;      Params:         4       0       0       0       0       0       0       0       0
  5084 ;;      Locals:         6       0       0       0       0       0       0       0       0
  5085 ;;      Temps:          4       0       0       0       0       0       0       0       0
  5086 ;;      Totals:        14       0       0       0       0       0       0       0       0
  5087 ;;Total ram usage:       14 bytes
  5088 ;; Hardware stack levels used: 1
  5089 ;; This function calls:
  5090 ;;		Nothing
  5091 ;; This function is called by:
  5092 ;;		_efgtoa
  5093 ;; This function uses a non-reentrant model
  5094 ;;
  5095                           
  5096                           	psect	text18
  5097  002DBA                     __ptext18:
  5098                           	callstack 0
  5099  002DBA                     ___fpclassifyf:
  5100                           	callstack 25
  5101  002DBA  C0C7  F00B         	movff	___fpclassifyf@F465,___fpclassifyf@u
  5102  002DBE  C0C8  F00C         	movff	___fpclassifyf@F465+1,___fpclassifyf@u+1
  5103  002DC2  C0C9  F00D         	movff	___fpclassifyf@F465+2,___fpclassifyf@u+2
  5104  002DC6  C0CA  F00E         	movff	___fpclassifyf@F465+3,___fpclassifyf@u+3
  5105  002DCA  C001  F00B         	movff	___fpclassifyf@x,___fpclassifyf@u
  5106  002DCE  C002  F00C         	movff	___fpclassifyf@x+1,___fpclassifyf@u+1
  5107  002DD2  C003  F00D         	movff	___fpclassifyf@x+2,___fpclassifyf@u+2
  5108  002DD6  C004  F00E         	movff	___fpclassifyf@x+3,___fpclassifyf@u+3
  5109  002DDA  C00B  F005         	movff	___fpclassifyf@u,??___fpclassifyf
  5110  002DDE  C00C  F006         	movff	___fpclassifyf@u+1,??___fpclassifyf+1
  5111  002DE2  C00D  F007         	movff	___fpclassifyf@u+2,??___fpclassifyf+2
  5112  002DE6  C00E  F008         	movff	___fpclassifyf@u+3,??___fpclassifyf+3
  5113  002DEA  0E18               	movlw	24
  5114  002DEC  EFFD  F016         	goto	u3540
  5115  002DF0                     u3545:
  5116  002DF0  90D8               	bcf	status,0,c
  5117  002DF2  3208               	rrcf	(??___fpclassifyf+3)^0,f,c
  5118  002DF4  3207               	rrcf	(??___fpclassifyf+2)^0,f,c
  5119  002DF6  3206               	rrcf	(??___fpclassifyf+1)^0,f,c
  5120  002DF8  3205               	rrcf	??___fpclassifyf^0,f,c
  5121  002DFA                     u3540:
  5122  002DFA  2EE8               	decfsz	wreg,f,c
  5123  002DFC  EFF8  F016         	goto	u3545
  5124  002E00  5005               	movf	??___fpclassifyf^0,w,c
  5125  002E02  6E09               	movwf	___fpclassifyf@e^0,c
  5126  002E04  6A0A               	clrf	(___fpclassifyf@e+1)^0,c
  5127  002E06  5009               	movf	___fpclassifyf@e^0,w,c
  5128  002E08  100A               	iorwf	(___fpclassifyf@e+1)^0,w,c
  5129  002E0A  A4D8               	btfss	status,2,c
  5130  002E0C  EF0A  F017         	goto	u3551
  5131  002E10  EF0C  F017         	goto	u3550
  5132  002E14                     u3551:
  5133  002E14  EF2C  F017         	goto	l3317
  5134  002E18                     u3550:
  5135  002E18  90D8               	bcf	status,0,c
  5136  002E1A  340B               	rlcf	___fpclassifyf@u^0,w,c
  5137  002E1C  6E05               	movwf	??___fpclassifyf^0,c
  5138  002E1E  340C               	rlcf	(___fpclassifyf@u+1)^0,w,c
  5139  002E20  6E06               	movwf	(??___fpclassifyf+1)^0,c
  5140  002E22  340D               	rlcf	(___fpclassifyf@u+2)^0,w,c
  5141  002E24  6E07               	movwf	(??___fpclassifyf+2)^0,c
  5142  002E26  340E               	rlcf	(___fpclassifyf@u+3)^0,w,c
  5143  002E28  6E08               	movwf	(??___fpclassifyf+3)^0,c
  5144  002E2A  5005               	movf	??___fpclassifyf^0,w,c
  5145  002E2C  1006               	iorwf	(??___fpclassifyf+1)^0,w,c
  5146  002E2E  1007               	iorwf	(??___fpclassifyf+2)^0,w,c
  5147  002E30  1008               	iorwf	(??___fpclassifyf+3)^0,w,c
  5148  002E32  A4D8               	btfss	status,2,c
  5149  002E34  EF1E  F017         	goto	u3561
  5150  002E38  EF20  F017         	goto	u3560
  5151  002E3C                     u3561:
  5152  002E3C  EF26  F017         	goto	l3313
  5153  002E40                     u3560:
  5154  002E40  0E00               	movlw	0
  5155  002E42  6E02               	movwf	(?___fpclassifyf+1)^0,c
  5156  002E44  0E02               	movlw	2
  5157  002E46  6E01               	movwf	?___fpclassifyf^0,c
  5158  002E48  EF5B  F017         	goto	l961
  5159  002E4C                     l3313:
  5160  002E4C  0E00               	movlw	0
  5161  002E4E  6E02               	movwf	(?___fpclassifyf+1)^0,c
  5162  002E50  0E03               	movlw	3
  5163  002E52  6E01               	movwf	?___fpclassifyf^0,c
  5164  002E54  EF5B  F017         	goto	l961
  5165  002E58                     l3317:
  5166  002E58  2809               	incf	___fpclassifyf@e^0,w,c
  5167  002E5A  100A               	iorwf	(___fpclassifyf@e+1)^0,w,c
  5168  002E5C  A4D8               	btfss	status,2,c
  5169  002E5E  EF33  F017         	goto	u3571
  5170  002E62  EF35  F017         	goto	u3570
  5171  002E66                     u3571:
  5172  002E66  EF57  F017         	goto	l3323
  5173  002E6A                     u3570:
  5174  002E6A  C00B  F005         	movff	___fpclassifyf@u,??___fpclassifyf
  5175  002E6E  C00C  F006         	movff	___fpclassifyf@u+1,??___fpclassifyf+1
  5176  002E72  C00D  F007         	movff	___fpclassifyf@u+2,??___fpclassifyf+2
  5177  002E76  C00E  F008         	movff	___fpclassifyf@u+3,??___fpclassifyf+3
  5178  002E7A  0E09               	movlw	9
  5179  002E7C                     u3585:
  5180  002E7C  90D8               	bcf	status,0,c
  5181  002E7E  3605               	rlcf	??___fpclassifyf^0,f,c
  5182  002E80  3606               	rlcf	(??___fpclassifyf+1)^0,f,c
  5183  002E82  3607               	rlcf	(??___fpclassifyf+2)^0,f,c
  5184  002E84  3608               	rlcf	(??___fpclassifyf+3)^0,f,c
  5185  002E86  2EE8               	decfsz	wreg,f,c
  5186  002E88  EF3E  F017         	goto	u3585
  5187  002E8C  5005               	movf	??___fpclassifyf^0,w,c
  5188  002E8E  1006               	iorwf	(??___fpclassifyf+1)^0,w,c
  5189  002E90  1007               	iorwf	(??___fpclassifyf+2)^0,w,c
  5190  002E92  1008               	iorwf	(??___fpclassifyf+3)^0,w,c
  5191  002E94  B4D8               	btfsc	status,2,c
  5192  002E96  EF4F  F017         	goto	u3591
  5193  002E9A  EF52  F017         	goto	u3590
  5194  002E9E                     u3591:
  5195  002E9E  0E01               	movlw	1
  5196  002EA0  EF53  F017         	goto	u3600
  5197  002EA4                     u3590:
  5198  002EA4  0E00               	movlw	0
  5199  002EA6                     u3600:
  5200  002EA6  6E01               	movwf	?___fpclassifyf^0,c
  5201  002EA8  6A02               	clrf	(?___fpclassifyf+1)^0,c
  5202  002EAA  EF5B  F017         	goto	l961
  5203  002EAE                     l3323:
  5204  002EAE  0E00               	movlw	0
  5205  002EB0  6E02               	movwf	(?___fpclassifyf+1)^0,c
  5206  002EB2  0E04               	movlw	4
  5207  002EB4  6E01               	movwf	?___fpclassifyf^0,c
  5208  002EB6                     l961:
  5209  002EB6  0012               	return		;funcret
  5210  002EB8                     __end_of___fpclassifyf:
  5211                           	callstack 0
  5212                           
  5213 ;; *************** function ___fltol *****************
  5214 ;; Defined at:
  5215 ;;		line 43 in file "C:\Program Files\Microchip\xc8\v2.36\pic\sources\c99\common\fltol.c"
  5216 ;; Parameters:    Size  Location     Type
  5217 ;;  f1              4    0[COMRAM] int 
  5218 ;; Auto vars:     Size  Location     Type
  5219 ;;  exp1            1    9[COMRAM] unsigned char 
  5220 ;;  sign1           1    8[COMRAM] unsigned char 
  5221 ;; Return value:  Size  Location     Type
  5222 ;;                  4    0[COMRAM] long 
  5223 ;; Registers used:
  5224 ;;		wreg, status,2, status,0
  5225 ;; Tracked objects:
  5226 ;;		On entry : 0/0
  5227 ;;		On exit  : 0/0
  5228 ;;		Unchanged: 0/0
  5229 ;; Data sizes:     COMRAM   BANK0   BANK1   BANK2   BANK3   BANK4   BANK5   BANK6   BANK7
  5230 ;;      Params:         4       0       0       0       0       0       0       0       0
  5231 ;;      Locals:         2       0       0       0       0       0       0       0       0
  5232 ;;      Temps:          4       0       0       0       0       0       0       0       0
  5233 ;;      Totals:        10       0       0       0       0       0       0       0       0
  5234 ;;Total ram usage:       10 bytes
  5235 ;; Hardware stack levels used: 1
  5236 ;; This function calls:
  5237 ;;		Nothing
  5238 ;; This function is called by:
  5239 ;;		_efgtoa
  5240 ;; This function uses a non-reentrant model
  5241 ;;
  5242                           
  5243                           	psect	text19
  5244  002BB0                     __ptext19:
  5245                           	callstack 0
  5246  002BB0                     ___fltol:
  5247                           	callstack 25
  5248  002BB0  3403               	rlcf	(___fltol@f1+2)^0,w,c
  5249  002BB2  3404               	rlcf	(___fltol@f1+3)^0,w,c
  5250  002BB4  6E0A               	movwf	___fltol@exp1^0,c
  5251  002BB6  500A               	movf	___fltol@exp1^0,w,c
  5252  002BB8  A4D8               	btfss	status,2,c
  5253  002BBA  EFE1  F015         	goto	u3431
  5254  002BBE  EFE3  F015         	goto	u3430
  5255  002BC2                     u3431:
  5256  002BC2  EFED  F015         	goto	l3245
  5257  002BC6                     u3430:
  5258  002BC6                     l3241:
  5259  002BC6  0E00               	movlw	0
  5260  002BC8  6E01               	movwf	?___fltol^0,c
  5261  002BCA  0E00               	movlw	0
  5262  002BCC  6E02               	movwf	(?___fltol+1)^0,c
  5263  002BCE  0E00               	movlw	0
  5264  002BD0  6E03               	movwf	(?___fltol+2)^0,c
  5265  002BD2  0E00               	movlw	0
  5266  002BD4  6E04               	movwf	(?___fltol+3)^0,c
  5267  002BD6  EF5A  F016         	goto	l410
  5268  002BDA                     l3245:
  5269  002BDA  C001  F005         	movff	___fltol@f1,??___fltol
  5270  002BDE  C002  F006         	movff	___fltol@f1+1,??___fltol+1
  5271  002BE2  C003  F007         	movff	___fltol@f1+2,??___fltol+2
  5272  002BE6  C004  F008         	movff	___fltol@f1+3,??___fltol+3
  5273  002BEA  0E20               	movlw	32
  5274  002BEC  EFFD  F015         	goto	u3440
  5275  002BF0                     u3445:
  5276  002BF0  90D8               	bcf	status,0,c
  5277  002BF2  3208               	rrcf	(??___fltol+3)^0,f,c
  5278  002BF4  3207               	rrcf	(??___fltol+2)^0,f,c
  5279  002BF6  3206               	rrcf	(??___fltol+1)^0,f,c
  5280  002BF8  3205               	rrcf	??___fltol^0,f,c
  5281  002BFA                     u3440:
  5282  002BFA  2EE8               	decfsz	wreg,f,c
  5283  002BFC  EFF8  F015         	goto	u3445
  5284  002C00  5005               	movf	??___fltol^0,w,c
  5285  002C02  6E09               	movwf	___fltol@sign1^0,c
  5286  002C04  8E03               	bsf	(___fltol@f1+2)^0,7,c
  5287  002C06  0EFF               	movlw	255
  5288  002C08  1601               	andwf	___fltol@f1^0,f,c
  5289  002C0A  0EFF               	movlw	255
  5290  002C0C  1602               	andwf	(___fltol@f1+1)^0,f,c
  5291  002C0E  0EFF               	movlw	255
  5292  002C10  1603               	andwf	(___fltol@f1+2)^0,f,c
  5293  002C12  0E00               	movlw	0
  5294  002C14  1604               	andwf	(___fltol@f1+3)^0,f,c
  5295  002C16  0E96               	movlw	150
  5296  002C18  5E0A               	subwf	___fltol@exp1^0,f,c
  5297  002C1A  BE0A               	btfsc	___fltol@exp1^0,7,c
  5298  002C1C  EF14  F016         	goto	u3450
  5299  002C20  EF12  F016         	goto	u3451
  5300  002C24                     u3451:
  5301  002C24  EF2A  F016         	goto	l3265
  5302  002C28                     u3450:
  5303  002C28  500A               	movf	___fltol@exp1^0,w,c
  5304  002C2A  0A80               	xorlw	128
  5305  002C2C  0F97               	addlw	151
  5306  002C2E  B0D8               	btfsc	status,0,c
  5307  002C30  EF1C  F016         	goto	u3461
  5308  002C34  EF1E  F016         	goto	u3460
  5309  002C38                     u3461:
  5310  002C38  EF20  F016         	goto	l3261
  5311  002C3C                     u3460:
  5312  002C3C  EFE3  F015         	goto	l3241
  5313  002C40                     l3261:
  5314  002C40  90D8               	bcf	status,0,c
  5315  002C42  3204               	rrcf	(___fltol@f1+3)^0,f,c
  5316  002C44  3203               	rrcf	(___fltol@f1+2)^0,f,c
  5317  002C46  3202               	rrcf	(___fltol@f1+1)^0,f,c
  5318  002C48  3201               	rrcf	___fltol@f1^0,f,c
  5319  002C4A  3E0A               	incfsz	___fltol@exp1^0,f,c
  5320  002C4C  EF20  F016         	goto	l3261
  5321  002C50  EF42  F016         	goto	l3275
  5322  002C54                     l3265:
  5323  002C54  0E1F               	movlw	31
  5324  002C56  640A               	cpfsgt	___fltol@exp1^0,c
  5325  002C58  EF30  F016         	goto	u3471
  5326  002C5C  EF32  F016         	goto	u3470
  5327  002C60                     u3471:
  5328  002C60  EF3A  F016         	goto	l3273
  5329  002C64                     u3470:
  5330  002C64  EFE3  F015         	goto	l3241
  5331  002C68                     l3271:
  5332  002C68  90D8               	bcf	status,0,c
  5333  002C6A  3601               	rlcf	___fltol@f1^0,f,c
  5334  002C6C  3602               	rlcf	(___fltol@f1+1)^0,f,c
  5335  002C6E  3603               	rlcf	(___fltol@f1+2)^0,f,c
  5336  002C70  3604               	rlcf	(___fltol@f1+3)^0,f,c
  5337  002C72  060A               	decf	___fltol@exp1^0,f,c
  5338  002C74                     l3273:
  5339  002C74  500A               	movf	___fltol@exp1^0,w,c
  5340  002C76  A4D8               	btfss	status,2,c
  5341  002C78  EF40  F016         	goto	u3481
  5342  002C7C  EF42  F016         	goto	u3480
  5343  002C80                     u3481:
  5344  002C80  EF34  F016         	goto	l3271
  5345  002C84                     u3480:
  5346  002C84                     l3275:
  5347  002C84  5009               	movf	___fltol@sign1^0,w,c
  5348  002C86  B4D8               	btfsc	status,2,c
  5349  002C88  EF48  F016         	goto	u3491
  5350  002C8C  EF4A  F016         	goto	u3490
  5351  002C90                     u3491:
  5352  002C90  EF52  F016         	goto	l3279
  5353  002C94                     u3490:
  5354  002C94  1E04               	comf	(___fltol@f1+3)^0,f,c
  5355  002C96  1E03               	comf	(___fltol@f1+2)^0,f,c
  5356  002C98  1E02               	comf	(___fltol@f1+1)^0,f,c
  5357  002C9A  6C01               	negf	___fltol@f1^0,c
  5358  002C9C  0E00               	movlw	0
  5359  002C9E  2202               	addwfc	(___fltol@f1+1)^0,f,c
  5360  002CA0  2203               	addwfc	(___fltol@f1+2)^0,f,c
  5361  002CA2  2204               	addwfc	(___fltol@f1+3)^0,f,c
  5362  002CA4                     l3279:
  5363  002CA4  C001  F001         	movff	___fltol@f1,?___fltol
  5364  002CA8  C002  F002         	movff	___fltol@f1+1,?___fltol+1
  5365  002CAC  C003  F003         	movff	___fltol@f1+2,?___fltol+2
  5366  002CB0  C004  F004         	movff	___fltol@f1+3,?___fltol+3
  5367  002CB4                     l410:
  5368  002CB4  0012               	return		;funcret
  5369  002CB6                     __end_of___fltol:
  5370                           	callstack 0
  5371                           
  5372 ;; *************** function ___flsub *****************
  5373 ;; Defined at:
  5374 ;;		line 245 in file "C:\Program Files\Microchip\xc8\v2.36\pic\sources\c99\common\sprcadd.c"
  5375 ;; Parameters:    Size  Location     Type
  5376 ;;  b               4   55[COMRAM] long 
  5377 ;;  a               4   59[COMRAM] long 
  5378 ;; Auto vars:     Size  Location     Type
  5379 ;;		None
  5380 ;; Return value:  Size  Location     Type
  5381 ;;                  4   55[COMRAM] long 
  5382 ;; Registers used:
  5383 ;;		wreg, status,2, status,0, cstack
  5384 ;; Tracked objects:
  5385 ;;		On entry : 0/0
  5386 ;;		On exit  : 0/0
  5387 ;;		Unchanged: 0/0
  5388 ;; Data sizes:     COMRAM   BANK0   BANK1   BANK2   BANK3   BANK4   BANK5   BANK6   BANK7
  5389 ;;      Params:         8       0       0       0       0       0       0       0       0
  5390 ;;      Locals:         0       0       0       0       0       0       0       0       0
  5391 ;;      Temps:          0       0       0       0       0       0       0       0       0
  5392 ;;      Totals:         8       0       0       0       0       0       0       0       0
  5393 ;;Total ram usage:        8 bytes
  5394 ;; Hardware stack levels used: 1
  5395 ;; Hardware stack levels required when called: 1
  5396 ;; This function calls:
  5397 ;;		___fladd
  5398 ;; This function is called by:
  5399 ;;		_efgtoa
  5400 ;; This function uses a non-reentrant model
  5401 ;;
  5402                           
  5403                           	psect	text20
  5404  00378E                     __ptext20:
  5405                           	callstack 0
  5406  00378E                     ___flsub:
  5407                           	callstack 24
  5408  00378E  0E00               	movlw	0
  5409  003790  1A3C               	xorwf	___flsub@a^0,f,c
  5410  003792  0E00               	movlw	0
  5411  003794  1A3D               	xorwf	(___flsub@a+1)^0,f,c
  5412  003796  0E00               	movlw	0
  5413  003798  1A3E               	xorwf	(___flsub@a+2)^0,f,c
  5414  00379A  0E80               	movlw	128
  5415  00379C  1A3F               	xorwf	(___flsub@a+3)^0,f,c
  5416  00379E  C038  F028         	movff	___flsub@b,___fladd@b
  5417  0037A2  C039  F029         	movff	___flsub@b+1,___fladd@b+1
  5418  0037A6  C03A  F02A         	movff	___flsub@b+2,___fladd@b+2
  5419  0037AA  C03B  F02B         	movff	___flsub@b+3,___fladd@b+3
  5420  0037AE  C03C  F02C         	movff	___flsub@a,___fladd@a
  5421  0037B2  C03D  F02D         	movff	___flsub@a+1,___fladd@a+1
  5422  0037B6  C03E  F02E         	movff	___flsub@a+2,___fladd@a+2
  5423  0037BA  C03F  F02F         	movff	___flsub@a+3,___fladd@a+3
  5424  0037BE  EC36  F00A         	call	___fladd	;wreg free
  5425  0037C2  C028  F038         	movff	?___fladd,?___flsub
  5426  0037C6  C029  F039         	movff	?___fladd+1,?___flsub+1
  5427  0037CA  C02A  F03A         	movff	?___fladd+2,?___flsub+2
  5428  0037CE  C02B  F03B         	movff	?___fladd+3,?___flsub+3
  5429  0037D2  0012               	return		;funcret
  5430  0037D4                     __end_of___flsub:
  5431                           	callstack 0
  5432                           
  5433 ;; *************** function ___fladd *****************
  5434 ;; Defined at:
  5435 ;;		line 10 in file "C:\Program Files\Microchip\xc8\v2.36\pic\sources\c99\common\sprcadd.c"
  5436 ;; Parameters:    Size  Location     Type
  5437 ;;  b               4   39[COMRAM] long 
  5438 ;;  a               4   43[COMRAM] long 
  5439 ;; Auto vars:     Size  Location     Type
  5440 ;;  grs             1   54[COMRAM] unsigned char 
  5441 ;;  bexp            1   53[COMRAM] unsigned char 
  5442 ;;  aexp            1   52[COMRAM] unsigned char 
  5443 ;;  signs           1   51[COMRAM] unsigned char 
  5444 ;; Return value:  Size  Location     Type
  5445 ;;                  4   39[COMRAM] unsigned char 
  5446 ;; Registers used:
  5447 ;;		wreg, status,2, status,0
  5448 ;; Tracked objects:
  5449 ;;		On entry : 0/0
  5450 ;;		On exit  : 0/0
  5451 ;;		Unchanged: 0/0
  5452 ;; Data sizes:     COMRAM   BANK0   BANK1   BANK2   BANK3   BANK4   BANK5   BANK6   BANK7
  5453 ;;      Params:         8       0       0       0       0       0       0       0       0
  5454 ;;      Locals:         4       0       0       0       0       0       0       0       0
  5455 ;;      Temps:          4       0       0       0       0       0       0       0       0
  5456 ;;      Totals:        16       0       0       0       0       0       0       0       0
  5457 ;;Total ram usage:       16 bytes
  5458 ;; Hardware stack levels used: 1
  5459 ;; This function calls:
  5460 ;;		Nothing
  5461 ;; This function is called by:
  5462 ;;		_potentiometer_temperature
  5463 ;;		___flsub
  5464 ;;		_efgtoa
  5465 ;; This function uses a non-reentrant model
  5466 ;;
  5467                           
  5468                           	psect	text21
  5469  00146C                     __ptext21:
  5470                           	callstack 0
  5471  00146C                     ___fladd:
  5472                           	callstack 24
  5473  00146C  502B               	movf	(___fladd@b+3)^0,w,c
  5474  00146E  0B80               	andlw	128
  5475  001470  6E34               	movwf	___fladd@signs^0,c
  5476  001472  502B               	movf	(___fladd@b+3)^0,w,c
  5477  001474  242B               	addwf	(___fladd@b+3)^0,w,c
  5478  001476  6E36               	movwf	___fladd@bexp^0,c
  5479  001478  AE2A               	btfss	(___fladd@b+2)^0,7,c
  5480  00147A  EF41  F00A         	goto	u2371
  5481  00147E  EF43  F00A         	goto	u2370
  5482  001482                     u2371:
  5483  001482  EF44  F00A         	goto	l2615
  5484  001486                     u2370:
  5485  001486  8036               	bsf	___fladd@bexp^0,0,c
  5486  001488                     l2615:
  5487  001488  5036               	movf	___fladd@bexp^0,w,c
  5488  00148A  B4D8               	btfsc	status,2,c
  5489  00148C  EF4A  F00A         	goto	u2381
  5490  001490  EF4C  F00A         	goto	u2380
  5491  001494                     u2381:
  5492  001494  EF61  F00A         	goto	l2625
  5493  001498                     u2380:
  5494  001498  2836               	incf	___fladd@bexp^0,w,c
  5495  00149A  A4D8               	btfss	status,2,c
  5496  00149C  EF52  F00A         	goto	u2391
  5497  0014A0  EF54  F00A         	goto	u2390
  5498  0014A4                     u2391:
  5499  0014A4  EF5C  F00A         	goto	l2621
  5500  0014A8                     u2390:
  5501  0014A8  0E00               	movlw	0
  5502  0014AA  6E28               	movwf	___fladd@b^0,c
  5503  0014AC  0E00               	movlw	0
  5504  0014AE  6E29               	movwf	(___fladd@b+1)^0,c
  5505  0014B0  0E00               	movlw	0
  5506  0014B2  6E2A               	movwf	(___fladd@b+2)^0,c
  5507  0014B4  0E00               	movlw	0
  5508  0014B6  6E2B               	movwf	(___fladd@b+3)^0,c
  5509  0014B8                     l2621:
  5510  0014B8  8E2A               	bsf	(___fladd@b+2)^0,7,c
  5511  0014BA  0E00               	movlw	0
  5512  0014BC  6E2B               	movwf	(___fladd@b+3)^0,c
  5513  0014BE  EF69  F00A         	goto	l2627
  5514  0014C2                     l2625:
  5515  0014C2  0E00               	movlw	0
  5516  0014C4  6E28               	movwf	___fladd@b^0,c
  5517  0014C6  0E00               	movlw	0
  5518  0014C8  6E29               	movwf	(___fladd@b+1)^0,c
  5519  0014CA  0E00               	movlw	0
  5520  0014CC  6E2A               	movwf	(___fladd@b+2)^0,c
  5521  0014CE  0E00               	movlw	0
  5522  0014D0  6E2B               	movwf	(___fladd@b+3)^0,c
  5523  0014D2                     l2627:
  5524  0014D2  502F               	movf	(___fladd@a+3)^0,w,c
  5525  0014D4  0B80               	andlw	128
  5526  0014D6  6E35               	movwf	___fladd@aexp^0,c
  5527  0014D8  5034               	movf	___fladd@signs^0,w,c
  5528  0014DA  1835               	xorwf	___fladd@aexp^0,w,c
  5529  0014DC  B4D8               	btfsc	status,2,c
  5530  0014DE  EF73  F00A         	goto	u2401
  5531  0014E2  EF75  F00A         	goto	u2400
  5532  0014E6                     u2401:
  5533  0014E6  EF76  F00A         	goto	l2633
  5534  0014EA                     u2400:
  5535  0014EA  8C34               	bsf	___fladd@signs^0,6,c
  5536  0014EC                     l2633:
  5537  0014EC  502F               	movf	(___fladd@a+3)^0,w,c
  5538  0014EE  242F               	addwf	(___fladd@a+3)^0,w,c
  5539  0014F0  6E35               	movwf	___fladd@aexp^0,c
  5540  0014F2  AE2E               	btfss	(___fladd@a+2)^0,7,c
  5541  0014F4  EF7E  F00A         	goto	u2411
  5542  0014F8  EF80  F00A         	goto	u2410
  5543  0014FC                     u2411:
  5544  0014FC  EF81  F00A         	goto	l2639
  5545  001500                     u2410:
  5546  001500  8035               	bsf	___fladd@aexp^0,0,c
  5547  001502                     l2639:
  5548  001502  5035               	movf	___fladd@aexp^0,w,c
  5549  001504  B4D8               	btfsc	status,2,c
  5550  001506  EF87  F00A         	goto	u2421
  5551  00150A  EF89  F00A         	goto	u2420
  5552  00150E                     u2421:
  5553  00150E  EF9E  F00A         	goto	l2649
  5554  001512                     u2420:
  5555  001512  2835               	incf	___fladd@aexp^0,w,c
  5556  001514  A4D8               	btfss	status,2,c
  5557  001516  EF8F  F00A         	goto	u2431
  5558  00151A  EF91  F00A         	goto	u2430
  5559  00151E                     u2431:
  5560  00151E  EF99  F00A         	goto	l2645
  5561  001522                     u2430:
  5562  001522  0E00               	movlw	0
  5563  001524  6E2C               	movwf	___fladd@a^0,c
  5564  001526  0E00               	movlw	0
  5565  001528  6E2D               	movwf	(___fladd@a+1)^0,c
  5566  00152A  0E00               	movlw	0
  5567  00152C  6E2E               	movwf	(___fladd@a+2)^0,c
  5568  00152E  0E00               	movlw	0
  5569  001530  6E2F               	movwf	(___fladd@a+3)^0,c
  5570  001532                     l2645:
  5571  001532  8E2E               	bsf	(___fladd@a+2)^0,7,c
  5572  001534  0E00               	movlw	0
  5573  001536  6E2F               	movwf	(___fladd@a+3)^0,c
  5574  001538  EFA6  F00A         	goto	l2651
  5575  00153C                     l2649:
  5576  00153C  0E00               	movlw	0
  5577  00153E  6E2C               	movwf	___fladd@a^0,c
  5578  001540  0E00               	movlw	0
  5579  001542  6E2D               	movwf	(___fladd@a+1)^0,c
  5580  001544  0E00               	movlw	0
  5581  001546  6E2E               	movwf	(___fladd@a+2)^0,c
  5582  001548  0E00               	movlw	0
  5583  00154A  6E2F               	movwf	(___fladd@a+3)^0,c
  5584  00154C                     l2651:
  5585  00154C  5036               	movf	___fladd@bexp^0,w,c
  5586  00154E  5C35               	subwf	___fladd@aexp^0,w,c
  5587  001550  B0D8               	btfsc	status,0,c
  5588  001552  EFAD  F00A         	goto	u2441
  5589  001556  EFAF  F00A         	goto	u2440
  5590  00155A                     u2441:
  5591  00155A  EFD6  F00A         	goto	l2687
  5592  00155E                     u2440:
  5593  00155E  AC34               	btfss	___fladd@signs^0,6,c
  5594  001560  EFB4  F00A         	goto	u2451
  5595  001564  EFB6  F00A         	goto	u2450
  5596  001568                     u2451:
  5597  001568  EFB8  F00A         	goto	l2657
  5598  00156C                     u2450:
  5599  00156C  0E80               	movlw	128
  5600  00156E  1A34               	xorwf	___fladd@signs^0,f,c
  5601  001570                     l2657:
  5602  001570  C036  F037         	movff	___fladd@bexp,___fladd@grs
  5603  001574  C035  F036         	movff	___fladd@aexp,___fladd@bexp
  5604  001578  C037  F035         	movff	___fladd@grs,___fladd@aexp
  5605  00157C  C028  F037         	movff	___fladd@b,___fladd@grs
  5606  001580  C02C  F028         	movff	___fladd@a,___fladd@b
  5607  001584  C037  F02C         	movff	___fladd@grs,___fladd@a
  5608  001588  C029  F037         	movff	___fladd@b+1,___fladd@grs
  5609  00158C  C02D  F029         	movff	___fladd@a+1,___fladd@b+1
  5610  001590  C037  F02D         	movff	___fladd@grs,___fladd@a+1
  5611  001594  C02A  F037         	movff	___fladd@b+2,___fladd@grs
  5612  001598  C02E  F02A         	movff	___fladd@a+2,___fladd@b+2
  5613  00159C  C037  F02E         	movff	___fladd@grs,___fladd@a+2
  5614  0015A0  C02B  F037         	movff	___fladd@b+3,___fladd@grs
  5615  0015A4  C02F  F02B         	movff	___fladd@a+3,___fladd@b+3
  5616  0015A8  C037  F02F         	movff	___fladd@grs,___fladd@a+3
  5617  0015AC                     l2687:
  5618  0015AC  0E00               	movlw	0
  5619  0015AE  6E37               	movwf	___fladd@grs^0,c
  5620  0015B0  5036               	movf	___fladd@bexp^0,w,c
  5621  0015B2  C035  F030         	movff	___fladd@aexp,??___fladd
  5622  0015B6  6A31               	clrf	(??___fladd+1)^0,c
  5623  0015B8  5E30               	subwf	??___fladd^0,f,c
  5624  0015BA  0E00               	movlw	0
  5625  0015BC  5A31               	subwfb	(??___fladd+1)^0,f,c
  5626  0015BE  BE31               	btfsc	(??___fladd+1)^0,7,c
  5627  0015C0  EFEB  F00A         	goto	u2461
  5628  0015C4  5031               	movf	(??___fladd+1)^0,w,c
  5629  0015C6  E109               	bnz	u2460
  5630  0015C8  0E1A               	movlw	26
  5631  0015CA  5C30               	subwf	??___fladd^0,w,c
  5632  0015CC  A0D8               	btfss	status,0,c
  5633  0015CE  EFEB  F00A         	goto	u2461
  5634  0015D2  EFED  F00A         	goto	u2460
  5635  0015D6                     u2461:
  5636  0015D6  EF24  F00B         	goto	l642
  5637  0015DA                     u2460:
  5638  0015DA  5028               	movf	___fladd@b^0,w,c
  5639  0015DC  1029               	iorwf	(___fladd@b+1)^0,w,c
  5640  0015DE  102A               	iorwf	(___fladd@b+2)^0,w,c
  5641  0015E0  102B               	iorwf	(___fladd@b+3)^0,w,c
  5642  0015E2  A4D8               	btfss	status,2,c
  5643  0015E4  EFF6  F00A         	goto	u2471
  5644  0015E8  EFF9  F00A         	goto	u2470
  5645  0015EC                     u2471:
  5646  0015EC  0E01               	movlw	1
  5647  0015EE  EFFA  F00A         	goto	u2480
  5648  0015F2                     u2470:
  5649  0015F2  0E00               	movlw	0
  5650  0015F4                     u2480:
  5651  0015F4  6E37               	movwf	___fladd@grs^0,c
  5652  0015F6  0E00               	movlw	0
  5653  0015F8  6E28               	movwf	___fladd@b^0,c
  5654  0015FA  0E00               	movlw	0
  5655  0015FC  6E29               	movwf	(___fladd@b+1)^0,c
  5656  0015FE  0E00               	movlw	0
  5657  001600  6E2A               	movwf	(___fladd@b+2)^0,c
  5658  001602  0E00               	movlw	0
  5659  001604  6E2B               	movwf	(___fladd@b+3)^0,c
  5660  001606  C035  F036         	movff	___fladd@aexp,___fladd@bexp
  5661  00160A  EF2D  F00B         	goto	l641
  5662  00160E                     l643:
  5663  00160E  A037               	btfss	___fladd@grs^0,0,c
  5664  001610  EF0C  F00B         	goto	u2491
  5665  001614  EF0E  F00B         	goto	u2490
  5666  001618                     u2491:
  5667  001618  EF14  F00B         	goto	l2699
  5668  00161C                     u2490:
  5669  00161C  90D8               	bcf	status,0,c
  5670  00161E  3037               	rrcf	___fladd@grs^0,w,c
  5671  001620  0901               	iorlw	1
  5672  001622  6E37               	movwf	___fladd@grs^0,c
  5673  001624  EF16  F00B         	goto	l2701
  5674  001628                     l2699:
  5675  001628  90D8               	bcf	status,0,c
  5676  00162A  3237               	rrcf	___fladd@grs^0,f,c
  5677  00162C                     l2701:
  5678  00162C  A028               	btfss	___fladd@b^0,0,c
  5679  00162E  EF1B  F00B         	goto	u2501
  5680  001632  EF1D  F00B         	goto	u2500
  5681  001636                     u2501:
  5682  001636  EF1E  F00B         	goto	l2705
  5683  00163A                     u2500:
  5684  00163A  8E37               	bsf	___fladd@grs^0,7,c
  5685  00163C                     l2705:
  5686  00163C  342B               	rlcf	(___fladd@b+3)^0,w,c
  5687  00163E  322B               	rrcf	(___fladd@b+3)^0,f,c
  5688  001640  322A               	rrcf	(___fladd@b+2)^0,f,c
  5689  001642  3229               	rrcf	(___fladd@b+1)^0,f,c
  5690  001644  3228               	rrcf	___fladd@b^0,f,c
  5691  001646  2A36               	incf	___fladd@bexp^0,f,c
  5692  001648                     l642:
  5693  001648  5035               	movf	___fladd@aexp^0,w,c
  5694  00164A  5C36               	subwf	___fladd@bexp^0,w,c
  5695  00164C  A0D8               	btfss	status,0,c
  5696  00164E  EF2B  F00B         	goto	u2511
  5697  001652  EF2D  F00B         	goto	u2510
  5698  001656                     u2511:
  5699  001656  EF07  F00B         	goto	l643
  5700  00165A                     u2510:
  5701  00165A                     l641:
  5702  00165A  BC34               	btfsc	___fladd@signs^0,6,c
  5703  00165C  EF32  F00B         	goto	u2521
  5704  001660  EF34  F00B         	goto	u2520
  5705  001664                     u2521:
  5706  001664  EF74  F00B         	goto	l2733
  5707  001668                     u2520:
  5708  001668  5036               	movf	___fladd@bexp^0,w,c
  5709  00166A  A4D8               	btfss	status,2,c
  5710  00166C  EF3A  F00B         	goto	u2531
  5711  001670  EF3C  F00B         	goto	u2530
  5712  001674                     u2531:
  5713  001674  EF46  F00B         	goto	l2715
  5714  001678                     u2530:
  5715  001678  0E00               	movlw	0
  5716  00167A  6E28               	movwf	?___fladd^0,c
  5717  00167C  0E00               	movlw	0
  5718  00167E  6E29               	movwf	(?___fladd+1)^0,c
  5719  001680  0E00               	movlw	0
  5720  001682  6E2A               	movwf	(?___fladd+2)^0,c
  5721  001684  0E00               	movlw	0
  5722  001686  6E2B               	movwf	(?___fladd+3)^0,c
  5723  001688  EF95  F00C         	goto	l650
  5724  00168C                     l2715:
  5725  00168C  502C               	movf	___fladd@a^0,w,c
  5726  00168E  2628               	addwf	___fladd@b^0,f,c
  5727  001690  502D               	movf	(___fladd@a+1)^0,w,c
  5728  001692  2229               	addwfc	(___fladd@b+1)^0,f,c
  5729  001694  502E               	movf	(___fladd@a+2)^0,w,c
  5730  001696  222A               	addwfc	(___fladd@b+2)^0,f,c
  5731  001698  502F               	movf	(___fladd@a+3)^0,w,c
  5732  00169A  222B               	addwfc	(___fladd@b+3)^0,f,c
  5733  00169C  A02B               	btfss	(___fladd@b+3)^0,0,c
  5734  00169E  EF53  F00B         	goto	u2541
  5735  0016A2  EF55  F00B         	goto	u2540
  5736  0016A6                     u2541:
  5737  0016A6  EF01  F00C         	goto	l2769
  5738  0016AA                     u2540:
  5739  0016AA  A037               	btfss	___fladd@grs^0,0,c
  5740  0016AC  EF5A  F00B         	goto	u2551
  5741  0016B0  EF5C  F00B         	goto	u2550
  5742  0016B4                     u2551:
  5743  0016B4  EF62  F00B         	goto	l2723
  5744  0016B8                     u2550:
  5745  0016B8  90D8               	bcf	status,0,c
  5746  0016BA  3037               	rrcf	___fladd@grs^0,w,c
  5747  0016BC  0901               	iorlw	1
  5748  0016BE  6E37               	movwf	___fladd@grs^0,c
  5749  0016C0  EF64  F00B         	goto	l2725
  5750  0016C4                     l2723:
  5751  0016C4  90D8               	bcf	status,0,c
  5752  0016C6  3237               	rrcf	___fladd@grs^0,f,c
  5753  0016C8                     l2725:
  5754  0016C8  A028               	btfss	___fladd@b^0,0,c
  5755  0016CA  EF69  F00B         	goto	u2561
  5756  0016CE  EF6B  F00B         	goto	u2560
  5757  0016D2                     u2561:
  5758  0016D2  EF6C  F00B         	goto	l2729
  5759  0016D6                     u2560:
  5760  0016D6  8E37               	bsf	___fladd@grs^0,7,c
  5761  0016D8                     l2729:
  5762  0016D8  342B               	rlcf	(___fladd@b+3)^0,w,c
  5763  0016DA  322B               	rrcf	(___fladd@b+3)^0,f,c
  5764  0016DC  322A               	rrcf	(___fladd@b+2)^0,f,c
  5765  0016DE  3229               	rrcf	(___fladd@b+1)^0,f,c
  5766  0016E0  3228               	rrcf	___fladd@b^0,f,c
  5767  0016E2  2A36               	incf	___fladd@bexp^0,f,c
  5768  0016E4  EF01  F00C         	goto	l2769
  5769  0016E8                     l2733:
  5770  0016E8  502C               	movf	___fladd@a^0,w,c
  5771  0016EA  5C28               	subwf	___fladd@b^0,w,c
  5772  0016EC  502D               	movf	(___fladd@a+1)^0,w,c
  5773  0016EE  5829               	subwfb	(___fladd@b+1)^0,w,c
  5774  0016F0  502E               	movf	(___fladd@a+2)^0,w,c
  5775  0016F2  582A               	subwfb	(___fladd@b+2)^0,w,c
  5776  0016F4  502B               	movf	(___fladd@b+3)^0,w,c
  5777  0016F6  0A80               	xorlw	128
  5778  0016F8  6E30               	movwf	??___fladd^0,c
  5779  0016FA  502F               	movf	(___fladd@a+3)^0,w,c
  5780  0016FC  0A80               	xorlw	128
  5781  0016FE  5830               	subwfb	??___fladd^0,w,c
  5782  001700  B0D8               	btfsc	status,0,c
  5783  001702  EF85  F00B         	goto	u2571
  5784  001706  EF87  F00B         	goto	u2570
  5785  00170A                     u2571:
  5786  00170A  EFB2  F00B         	goto	l2743
  5787  00170E                     u2570:
  5788  00170E  5028               	movf	___fladd@b^0,w,c
  5789  001710  5C2C               	subwf	___fladd@a^0,w,c
  5790  001712  6E30               	movwf	??___fladd^0,c
  5791  001714  5029               	movf	(___fladd@b+1)^0,w,c
  5792  001716  582D               	subwfb	(___fladd@a+1)^0,w,c
  5793  001718  6E31               	movwf	(??___fladd+1)^0,c
  5794  00171A  502A               	movf	(___fladd@b+2)^0,w,c
  5795  00171C  582E               	subwfb	(___fladd@a+2)^0,w,c
  5796  00171E  6E32               	movwf	(??___fladd+2)^0,c
  5797  001720  502B               	movf	(___fladd@b+3)^0,w,c
  5798  001722  582F               	subwfb	(___fladd@a+3)^0,w,c
  5799  001724  6E33               	movwf	(??___fladd+3)^0,c
  5800  001726  0EFF               	movlw	255
  5801  001728  2430               	addwf	??___fladd^0,w,c
  5802  00172A  6E28               	movwf	___fladd@b^0,c
  5803  00172C  0EFF               	movlw	255
  5804  00172E  2031               	addwfc	(??___fladd+1)^0,w,c
  5805  001730  6E29               	movwf	(___fladd@b+1)^0,c
  5806  001732  0EFF               	movlw	255
  5807  001734  2032               	addwfc	(??___fladd+2)^0,w,c
  5808  001736  6E2A               	movwf	(___fladd@b+2)^0,c
  5809  001738  0EFF               	movlw	255
  5810  00173A  2033               	addwfc	(??___fladd+3)^0,w,c
  5811  00173C  6E2B               	movwf	(___fladd@b+3)^0,c
  5812  00173E  0E80               	movlw	128
  5813  001740  1A34               	xorwf	___fladd@signs^0,f,c
  5814  001742  6C37               	negf	___fladd@grs^0,c
  5815  001744  5037               	movf	___fladd@grs^0,w,c
  5816  001746  A4D8               	btfss	status,2,c
  5817  001748  EFA8  F00B         	goto	u2581
  5818  00174C  EFAA  F00B         	goto	u2580
  5819  001750                     u2581:
  5820  001750  EFBA  F00B         	goto	l658
  5821  001754                     u2580:
  5822  001754  0E01               	movlw	1
  5823  001756  2628               	addwf	___fladd@b^0,f,c
  5824  001758  0E00               	movlw	0
  5825  00175A  2229               	addwfc	(___fladd@b+1)^0,f,c
  5826  00175C  222A               	addwfc	(___fladd@b+2)^0,f,c
  5827  00175E  222B               	addwfc	(___fladd@b+3)^0,f,c
  5828  001760  EFBA  F00B         	goto	l658
  5829  001764                     l2743:
  5830  001764  502C               	movf	___fladd@a^0,w,c
  5831  001766  5E28               	subwf	___fladd@b^0,f,c
  5832  001768  502D               	movf	(___fladd@a+1)^0,w,c
  5833  00176A  5A29               	subwfb	(___fladd@b+1)^0,f,c
  5834  00176C  502E               	movf	(___fladd@a+2)^0,w,c
  5835  00176E  5A2A               	subwfb	(___fladd@b+2)^0,f,c
  5836  001770  502F               	movf	(___fladd@a+3)^0,w,c
  5837  001772  5A2B               	subwfb	(___fladd@b+3)^0,f,c
  5838  001774                     l658:
  5839  001774  5028               	movf	___fladd@b^0,w,c
  5840  001776  1029               	iorwf	(___fladd@b+1)^0,w,c
  5841  001778  102A               	iorwf	(___fladd@b+2)^0,w,c
  5842  00177A  102B               	iorwf	(___fladd@b+3)^0,w,c
  5843  00177C  A4D8               	btfss	status,2,c
  5844  00177E  EFC3  F00B         	goto	u2591
  5845  001782  EFC5  F00B         	goto	u2590
  5846  001786                     u2591:
  5847  001786  EFFA  F00B         	goto	l2767
  5848  00178A                     u2590:
  5849  00178A  5037               	movf	___fladd@grs^0,w,c
  5850  00178C  A4D8               	btfss	status,2,c
  5851  00178E  EFCB  F00B         	goto	u2601
  5852  001792  EFCD  F00B         	goto	u2600
  5853  001796                     u2601:
  5854  001796  EFFA  F00B         	goto	l2767
  5855  00179A                     u2600:
  5856  00179A  0E00               	movlw	0
  5857  00179C  6E28               	movwf	?___fladd^0,c
  5858  00179E  0E00               	movlw	0
  5859  0017A0  6E29               	movwf	(?___fladd+1)^0,c
  5860  0017A2  0E00               	movlw	0
  5861  0017A4  6E2A               	movwf	(?___fladd+2)^0,c
  5862  0017A6  0E00               	movlw	0
  5863  0017A8  6E2B               	movwf	(?___fladd+3)^0,c
  5864  0017AA  EF95  F00C         	goto	l650
  5865  0017AE                     l2751:
  5866  0017AE  90D8               	bcf	status,0,c
  5867  0017B0  3628               	rlcf	___fladd@b^0,f,c
  5868  0017B2  3629               	rlcf	(___fladd@b+1)^0,f,c
  5869  0017B4  362A               	rlcf	(___fladd@b+2)^0,f,c
  5870  0017B6  362B               	rlcf	(___fladd@b+3)^0,f,c
  5871  0017B8  AE37               	btfss	___fladd@grs^0,7,c
  5872  0017BA  EFE1  F00B         	goto	u2611
  5873  0017BE  EFE3  F00B         	goto	u2610
  5874  0017C2                     u2611:
  5875  0017C2  EFE4  F00B         	goto	l2757
  5876  0017C6                     u2610:
  5877  0017C6  8028               	bsf	___fladd@b^0,0,c
  5878  0017C8                     l2757:
  5879  0017C8  A037               	btfss	___fladd@grs^0,0,c
  5880  0017CA  EFE9  F00B         	goto	u2621
  5881  0017CE  EFEB  F00B         	goto	u2620
  5882  0017D2                     u2621:
  5883  0017D2  EFEF  F00B         	goto	l2761
  5884  0017D6                     u2620:
  5885  0017D6  80D8               	bsf	status,0,c
  5886  0017D8  3637               	rlcf	___fladd@grs^0,f,c
  5887  0017DA  EFF1  F00B         	goto	l2763
  5888  0017DE                     l2761:
  5889  0017DE  90D8               	bcf	status,0,c
  5890  0017E0  3637               	rlcf	___fladd@grs^0,f,c
  5891  0017E2                     l2763:
  5892  0017E2  5036               	movf	___fladd@bexp^0,w,c
  5893  0017E4  B4D8               	btfsc	status,2,c
  5894  0017E6  EFF7  F00B         	goto	u2631
  5895  0017EA  EFF9  F00B         	goto	u2630
  5896  0017EE                     u2631:
  5897  0017EE  EFFA  F00B         	goto	l2767
  5898  0017F2                     u2630:
  5899  0017F2  0636               	decf	___fladd@bexp^0,f,c
  5900  0017F4                     l2767:
  5901  0017F4  AE2A               	btfss	(___fladd@b+2)^0,7,c
  5902  0017F6  EFFF  F00B         	goto	u2641
  5903  0017FA  EF01  F00C         	goto	u2640
  5904  0017FE                     u2641:
  5905  0017FE  EFD7  F00B         	goto	l2751
  5906  001802                     u2640:
  5907  001802                     l2769:
  5908  001802  0E00               	movlw	0
  5909  001804  6E35               	movwf	___fladd@aexp^0,c
  5910  001806  AE37               	btfss	___fladd@grs^0,7,c
  5911  001808  EF08  F00C         	goto	u2651
  5912  00180C  EF0A  F00C         	goto	u2650
  5913  001810                     u2651:
  5914  001810  EF22  F00C         	goto	l667
  5915  001814                     u2650:
  5916  001814  C037  F030         	movff	___fladd@grs,??___fladd
  5917  001818  0E7F               	movlw	127
  5918  00181A  1630               	andwf	??___fladd^0,f,c
  5919  00181C  B4D8               	btfsc	status,2,c
  5920  00181E  EF13  F00C         	goto	u2661
  5921  001822  EF15  F00C         	goto	u2660
  5922  001826                     u2661:
  5923  001826  EF19  F00C         	goto	l668
  5924  00182A                     u2660:
  5925  00182A                     l2775:
  5926  00182A  0E01               	movlw	1
  5927  00182C  6E35               	movwf	___fladd@aexp^0,c
  5928  00182E  EF22  F00C         	goto	l667
  5929  001832                     l668:
  5930  001832  A028               	btfss	___fladd@b^0,0,c
  5931  001834  EF1E  F00C         	goto	u2671
  5932  001838  EF20  F00C         	goto	u2670
  5933  00183C                     u2671:
  5934  00183C  EF22  F00C         	goto	l667
  5935  001840                     u2670:
  5936  001840  EF15  F00C         	goto	l2775
  5937  001844                     l667:
  5938  001844  5035               	movf	___fladd@aexp^0,w,c
  5939  001846  B4D8               	btfsc	status,2,c
  5940  001848  EF28  F00C         	goto	u2681
  5941  00184C  EF2A  F00C         	goto	u2680
  5942  001850                     u2681:
  5943  001850  EF55  F00C         	goto	l2787
  5944  001854                     u2680:
  5945  001854  0E01               	movlw	1
  5946  001856  2628               	addwf	___fladd@b^0,f,c
  5947  001858  0E00               	movlw	0
  5948  00185A  2229               	addwfc	(___fladd@b+1)^0,f,c
  5949  00185C  222A               	addwfc	(___fladd@b+2)^0,f,c
  5950  00185E  222B               	addwfc	(___fladd@b+3)^0,f,c
  5951  001860  A02B               	btfss	(___fladd@b+3)^0,0,c
  5952  001862  EF35  F00C         	goto	u2691
  5953  001866  EF37  F00C         	goto	u2690
  5954  00186A                     u2691:
  5955  00186A  EF55  F00C         	goto	l2787
  5956  00186E                     u2690:
  5957  00186E  C028  F030         	movff	___fladd@b,??___fladd
  5958  001872  C029  F031         	movff	___fladd@b+1,??___fladd+1
  5959  001876  C02A  F032         	movff	___fladd@b+2,??___fladd+2
  5960  00187A  C02B  F033         	movff	___fladd@b+3,??___fladd+3
  5961  00187E  3433               	rlcf	(??___fladd+3)^0,w,c
  5962  001880  3233               	rrcf	(??___fladd+3)^0,f,c
  5963  001882  3232               	rrcf	(??___fladd+2)^0,f,c
  5964  001884  3231               	rrcf	(??___fladd+1)^0,f,c
  5965  001886  3230               	rrcf	??___fladd^0,f,c
  5966  001888  C030  F028         	movff	??___fladd,___fladd@b
  5967  00188C  C031  F029         	movff	??___fladd+1,___fladd@b+1
  5968  001890  C032  F02A         	movff	??___fladd+2,___fladd@b+2
  5969  001894  C033  F02B         	movff	??___fladd+3,___fladd@b+3
  5970  001898  2836               	incf	___fladd@bexp^0,w,c
  5971  00189A  B4D8               	btfsc	status,2,c
  5972  00189C  EF52  F00C         	goto	u2701
  5973  0018A0  EF54  F00C         	goto	u2700
  5974  0018A4                     u2701:
  5975  0018A4  EF55  F00C         	goto	l2787
  5976  0018A8                     u2700:
  5977  0018A8  2A36               	incf	___fladd@bexp^0,f,c
  5978  0018AA                     l2787:
  5979  0018AA  2836               	incf	___fladd@bexp^0,w,c
  5980  0018AC  B4D8               	btfsc	status,2,c
  5981  0018AE  EF5B  F00C         	goto	u2711
  5982  0018B2  EF5D  F00C         	goto	u2710
  5983  0018B6                     u2711:
  5984  0018B6  EF65  F00C         	goto	l2791
  5985  0018BA                     u2710:
  5986  0018BA  5036               	movf	___fladd@bexp^0,w,c
  5987  0018BC  A4D8               	btfss	status,2,c
  5988  0018BE  EF63  F00C         	goto	u2721
  5989  0018C2  EF65  F00C         	goto	u2720
  5990  0018C6                     u2721:
  5991  0018C6  EF77  F00C         	goto	l2795
  5992  0018CA                     u2720:
  5993  0018CA                     l2791:
  5994  0018CA  0E00               	movlw	0
  5995  0018CC  6E28               	movwf	___fladd@b^0,c
  5996  0018CE  0E00               	movlw	0
  5997  0018D0  6E29               	movwf	(___fladd@b+1)^0,c
  5998  0018D2  0E00               	movlw	0
  5999  0018D4  6E2A               	movwf	(___fladd@b+2)^0,c
  6000  0018D6  0E00               	movlw	0
  6001  0018D8  6E2B               	movwf	(___fladd@b+3)^0,c
  6002  0018DA  5036               	movf	___fladd@bexp^0,w,c
  6003  0018DC  A4D8               	btfss	status,2,c
  6004  0018DE  EF73  F00C         	goto	u2731
  6005  0018E2  EF75  F00C         	goto	u2730
  6006  0018E6                     u2731:
  6007  0018E6  EF77  F00C         	goto	l2795
  6008  0018EA                     u2730:
  6009  0018EA  0E00               	movlw	0
  6010  0018EC  6E34               	movwf	___fladd@signs^0,c
  6011  0018EE                     l2795:
  6012  0018EE  A036               	btfss	___fladd@bexp^0,0,c
  6013  0018F0  EF7C  F00C         	goto	u2741
  6014  0018F4  EF7E  F00C         	goto	u2740
  6015  0018F8                     u2741:
  6016  0018F8  EF81  F00C         	goto	l2799
  6017  0018FC                     u2740:
  6018  0018FC  8E2A               	bsf	(___fladd@b+2)^0,7,c
  6019  0018FE  EF82  F00C         	goto	l2801
  6020  001902                     l2799:
  6021  001902  9E2A               	bcf	(___fladd@b+2)^0,7,c
  6022  001904                     l2801:
  6023  001904  90D8               	bcf	status,0,c
  6024  001906  3036               	rrcf	___fladd@bexp^0,w,c
  6025  001908  6E2B               	movwf	(___fladd@b+3)^0,c
  6026  00190A  AE34               	btfss	___fladd@signs^0,7,c
  6027  00190C  EF8A  F00C         	goto	u2751
  6028  001910  EF8C  F00C         	goto	u2750
  6029  001914                     u2751:
  6030  001914  EF8D  F00C         	goto	l2807
  6031  001918                     u2750:
  6032  001918  8E2B               	bsf	(___fladd@b+3)^0,7,c
  6033  00191A                     l2807:
  6034  00191A  C028  F028         	movff	___fladd@b,?___fladd
  6035  00191E  C029  F029         	movff	___fladd@b+1,?___fladd+1
  6036  001922  C02A  F02A         	movff	___fladd@b+2,?___fladd+2
  6037  001926  C02B  F02B         	movff	___fladd@b+3,?___fladd+3
  6038  00192A                     l650:
  6039  00192A  0012               	return		;funcret
  6040  00192C                     __end_of___fladd:
  6041                           	callstack 0
  6042                           
  6043 ;; *************** function ___flneg *****************
  6044 ;; Defined at:
  6045 ;;		line 15 in file "C:\Program Files\Microchip\xc8\v2.36\pic\sources\c99\common\flneg.c"
  6046 ;; Parameters:    Size  Location     Type
  6047 ;;  f1              4    0[COMRAM] unsigned char 
  6048 ;; Auto vars:     Size  Location     Type
  6049 ;;		None
  6050 ;; Return value:  Size  Location     Type
  6051 ;;                  4    0[COMRAM] unsigned char 
  6052 ;; Registers used:
  6053 ;;		wreg, status,2, status,0
  6054 ;; Tracked objects:
  6055 ;;		On entry : 0/0
  6056 ;;		On exit  : 0/0
  6057 ;;		Unchanged: 0/0
  6058 ;; Data sizes:     COMRAM   BANK0   BANK1   BANK2   BANK3   BANK4   BANK5   BANK6   BANK7
  6059 ;;      Params:         4       0       0       0       0       0       0       0       0
  6060 ;;      Locals:         0       0       0       0       0       0       0       0       0
  6061 ;;      Temps:          0       0       0       0       0       0       0       0       0
  6062 ;;      Totals:         4       0       0       0       0       0       0       0       0
  6063 ;;Total ram usage:        4 bytes
  6064 ;; Hardware stack levels used: 1
  6065 ;; This function calls:
  6066 ;;		Nothing
  6067 ;; This function is called by:
  6068 ;;		_efgtoa
  6069 ;; This function uses a non-reentrant model
  6070 ;;
  6071                           
  6072                           	psect	text22
  6073  0038D0                     __ptext22:
  6074                           	callstack 0
  6075  0038D0                     ___flneg:
  6076                           	callstack 25
  6077  0038D0  5001               	movf	___flneg@f1^0,w,c
  6078  0038D2  1002               	iorwf	(___flneg@f1+1)^0,w,c
  6079  0038D4  1003               	iorwf	(___flneg@f1+2)^0,w,c
  6080  0038D6  1004               	iorwf	(___flneg@f1+3)^0,w,c
  6081  0038D8  B4D8               	btfsc	status,2,c
  6082  0038DA  EF71  F01C         	goto	u3421
  6083  0038DE  EF73  F01C         	goto	u3420
  6084  0038E2                     u3421:
  6085  0038E2  EF7B  F01C         	goto	l3235
  6086  0038E6                     u3420:
  6087  0038E6  0E00               	movlw	0
  6088  0038E8  1A01               	xorwf	___flneg@f1^0,f,c
  6089  0038EA  0E00               	movlw	0
  6090  0038EC  1A02               	xorwf	(___flneg@f1+1)^0,f,c
  6091  0038EE  0E00               	movlw	0
  6092  0038F0  1A03               	xorwf	(___flneg@f1+2)^0,f,c
  6093  0038F2  0E80               	movlw	128
  6094  0038F4  1A04               	xorwf	(___flneg@f1+3)^0,f,c
  6095  0038F6                     l3235:
  6096  0038F6  C001  F001         	movff	___flneg@f1,?___flneg
  6097  0038FA  C002  F002         	movff	___flneg@f1+1,?___flneg+1
  6098  0038FE  C003  F003         	movff	___flneg@f1+2,?___flneg+2
  6099  003902  C004  F004         	movff	___flneg@f1+3,?___flneg+3
  6100  003906  0012               	return		;funcret
  6101  003908                     __end_of___flneg:
  6102                           	callstack 0
  6103                           
  6104 ;; *************** function ___flmul *****************
  6105 ;; Defined at:
  6106 ;;		line 8 in file "C:\Program Files\Microchip\xc8\v2.36\pic\sources\c99\common\sprcmul.c"
  6107 ;; Parameters:    Size  Location     Type
  6108 ;;  b               4   14[COMRAM] unsigned char 
  6109 ;;  a               4   18[COMRAM] unsigned char 
  6110 ;; Auto vars:     Size  Location     Type
  6111 ;;  prod            4   33[COMRAM] struct .
  6112 ;;  grs             4   27[COMRAM] unsigned long 
  6113 ;;  temp            2   37[COMRAM] struct .
  6114 ;;  bexp            1   32[COMRAM] unsigned char 
  6115 ;;  aexp            1   31[COMRAM] unsigned char 
  6116 ;;  sign            1   26[COMRAM] unsigned char 
  6117 ;; Return value:  Size  Location     Type
  6118 ;;                  4   14[COMRAM] unsigned char 
  6119 ;; Registers used:
  6120 ;;		wreg, status,2, status,0, prodl, prodh
  6121 ;; Tracked objects:
  6122 ;;		On entry : 0/0
  6123 ;;		On exit  : 0/0
  6124 ;;		Unchanged: 0/0
  6125 ;; Data sizes:     COMRAM   BANK0   BANK1   BANK2   BANK3   BANK4   BANK5   BANK6   BANK7
  6126 ;;      Params:         8       0       0       0       0       0       0       0       0
  6127 ;;      Locals:        13       0       0       0       0       0       0       0       0
  6128 ;;      Temps:          4       0       0       0       0       0       0       0       0
  6129 ;;      Totals:        25       0       0       0       0       0       0       0       0
  6130 ;;Total ram usage:       25 bytes
  6131 ;; Hardware stack levels used: 1
  6132 ;; This function calls:
  6133 ;;		Nothing
  6134 ;; This function is called by:
  6135 ;;		_potentiometer_temperature
  6136 ;;		_efgtoa
  6137 ;; This function uses a non-reentrant model
  6138 ;;
  6139                           
  6140                           	psect	text23
  6141  001D58                     __ptext23:
  6142                           	callstack 0
  6143  001D58                     ___flmul:
  6144                           	callstack 25
  6145  001D58  5012               	movf	(___flmul@b+3)^0,w,c
  6146  001D5A  0B80               	andlw	128
  6147  001D5C  6E1B               	movwf	___flmul@sign^0,c
  6148  001D5E  5012               	movf	(___flmul@b+3)^0,w,c
  6149  001D60  2412               	addwf	(___flmul@b+3)^0,w,c
  6150  001D62  6E21               	movwf	___flmul@bexp^0,c
  6151  001D64  AE11               	btfss	(___flmul@b+2)^0,7,c
  6152  001D66  EFB7  F00E         	goto	u3031
  6153  001D6A  EFB9  F00E         	goto	u3030
  6154  001D6E                     u3031:
  6155  001D6E  EFBA  F00E         	goto	l2983
  6156  001D72                     u3030:
  6157  001D72  8021               	bsf	___flmul@bexp^0,0,c
  6158  001D74                     l2983:
  6159  001D74  5021               	movf	___flmul@bexp^0,w,c
  6160  001D76  B4D8               	btfsc	status,2,c
  6161  001D78  EFC0  F00E         	goto	u3041
  6162  001D7C  EFC2  F00E         	goto	u3040
  6163  001D80                     u3041:
  6164  001D80  EFD5  F00E         	goto	l2991
  6165  001D84                     u3040:
  6166  001D84  2821               	incf	___flmul@bexp^0,w,c
  6167  001D86  A4D8               	btfss	status,2,c
  6168  001D88  EFC8  F00E         	goto	u3051
  6169  001D8C  EFCA  F00E         	goto	u3050
  6170  001D90                     u3051:
  6171  001D90  EFD2  F00E         	goto	l2989
  6172  001D94                     u3050:
  6173  001D94  0E00               	movlw	0
  6174  001D96  6E0F               	movwf	___flmul@b^0,c
  6175  001D98  0E00               	movlw	0
  6176  001D9A  6E10               	movwf	(___flmul@b+1)^0,c
  6177  001D9C  0E00               	movlw	0
  6178  001D9E  6E11               	movwf	(___flmul@b+2)^0,c
  6179  001DA0  0E00               	movlw	0
  6180  001DA2  6E12               	movwf	(___flmul@b+3)^0,c
  6181  001DA4                     l2989:
  6182  001DA4  8E11               	bsf	(___flmul@b+2)^0,7,c
  6183  001DA6  EFDD  F00E         	goto	l2993
  6184  001DAA                     l2991:
  6185  001DAA  0E00               	movlw	0
  6186  001DAC  6E0F               	movwf	___flmul@b^0,c
  6187  001DAE  0E00               	movlw	0
  6188  001DB0  6E10               	movwf	(___flmul@b+1)^0,c
  6189  001DB2  0E00               	movlw	0
  6190  001DB4  6E11               	movwf	(___flmul@b+2)^0,c
  6191  001DB6  0E00               	movlw	0
  6192  001DB8  6E12               	movwf	(___flmul@b+3)^0,c
  6193  001DBA                     l2993:
  6194  001DBA  5016               	movf	(___flmul@a+3)^0,w,c
  6195  001DBC  0B80               	andlw	128
  6196  001DBE  1A1B               	xorwf	___flmul@sign^0,f,c
  6197  001DC0  5016               	movf	(___flmul@a+3)^0,w,c
  6198  001DC2  2416               	addwf	(___flmul@a+3)^0,w,c
  6199  001DC4  6E20               	movwf	___flmul@aexp^0,c
  6200  001DC6  AE15               	btfss	(___flmul@a+2)^0,7,c
  6201  001DC8  EFE8  F00E         	goto	u3061
  6202  001DCC  EFEA  F00E         	goto	u3060
  6203  001DD0                     u3061:
  6204  001DD0  EFEB  F00E         	goto	l3001
  6205  001DD4                     u3060:
  6206  001DD4  8020               	bsf	___flmul@aexp^0,0,c
  6207  001DD6                     l3001:
  6208  001DD6  5020               	movf	___flmul@aexp^0,w,c
  6209  001DD8  B4D8               	btfsc	status,2,c
  6210  001DDA  EFF1  F00E         	goto	u3071
  6211  001DDE  EFF3  F00E         	goto	u3070
  6212  001DE2                     u3071:
  6213  001DE2  EF06  F00F         	goto	l3009
  6214  001DE6                     u3070:
  6215  001DE6  2820               	incf	___flmul@aexp^0,w,c
  6216  001DE8  A4D8               	btfss	status,2,c
  6217  001DEA  EFF9  F00E         	goto	u3081
  6218  001DEE  EFFB  F00E         	goto	u3080
  6219  001DF2                     u3081:
  6220  001DF2  EF03  F00F         	goto	l3007
  6221  001DF6                     u3080:
  6222  001DF6  0E00               	movlw	0
  6223  001DF8  6E13               	movwf	___flmul@a^0,c
  6224  001DFA  0E00               	movlw	0
  6225  001DFC  6E14               	movwf	(___flmul@a+1)^0,c
  6226  001DFE  0E00               	movlw	0
  6227  001E00  6E15               	movwf	(___flmul@a+2)^0,c
  6228  001E02  0E00               	movlw	0
  6229  001E04  6E16               	movwf	(___flmul@a+3)^0,c
  6230  001E06                     l3007:
  6231  001E06  8E15               	bsf	(___flmul@a+2)^0,7,c
  6232  001E08  EF0E  F00F         	goto	l727
  6233  001E0C                     l3009:
  6234  001E0C  0E00               	movlw	0
  6235  001E0E  6E13               	movwf	___flmul@a^0,c
  6236  001E10  0E00               	movlw	0
  6237  001E12  6E14               	movwf	(___flmul@a+1)^0,c
  6238  001E14  0E00               	movlw	0
  6239  001E16  6E15               	movwf	(___flmul@a+2)^0,c
  6240  001E18  0E00               	movlw	0
  6241  001E1A  6E16               	movwf	(___flmul@a+3)^0,c
  6242  001E1C                     l727:
  6243  001E1C  5020               	movf	___flmul@aexp^0,w,c
  6244  001E1E  B4D8               	btfsc	status,2,c
  6245  001E20  EF14  F00F         	goto	u3091
  6246  001E24  EF16  F00F         	goto	u3090
  6247  001E28                     u3091:
  6248  001E28  EF1E  F00F         	goto	l3013
  6249  001E2C                     u3090:
  6250  001E2C  5021               	movf	___flmul@bexp^0,w,c
  6251  001E2E  A4D8               	btfss	status,2,c
  6252  001E30  EF1C  F00F         	goto	u3101
  6253  001E34  EF1E  F00F         	goto	u3100
  6254  001E38                     u3101:
  6255  001E38  EF28  F00F         	goto	l3017
  6256  001E3C                     u3100:
  6257  001E3C                     l3013:
  6258  001E3C  0E00               	movlw	0
  6259  001E3E  6E0F               	movwf	?___flmul^0,c
  6260  001E40  0E00               	movlw	0
  6261  001E42  6E10               	movwf	(?___flmul+1)^0,c
  6262  001E44  0E00               	movlw	0
  6263  001E46  6E11               	movwf	(?___flmul+2)^0,c
  6264  001E48  0E00               	movlw	0
  6265  001E4A  6E12               	movwf	(?___flmul+3)^0,c
  6266  001E4C  EFC0  F010         	goto	l731
  6267  001E50                     l3017:
  6268  001E50  5015               	movf	(___flmul@a+2)^0,w,c
  6269  001E52  020F               	mulwf	___flmul@b^0,c
  6270  001E54  CFF3 F026          	movff	prodl,___flmul@temp
  6271  001E58  CFF4 F027          	movff	prodh,___flmul@temp+1
  6272  001E5C  5026               	movf	___flmul@temp^0,w,c
  6273  001E5E  6E1C               	movwf	___flmul@grs^0,c
  6274  001E60  6A1D               	clrf	(___flmul@grs+1)^0,c
  6275  001E62  6A1E               	clrf	(___flmul@grs+2)^0,c
  6276  001E64  6A1F               	clrf	(___flmul@grs+3)^0,c
  6277  001E66  5027               	movf	(___flmul@temp+1)^0,w,c
  6278  001E68  6E22               	movwf	___flmul@prod^0,c
  6279  001E6A  6A23               	clrf	(___flmul@prod+1)^0,c
  6280  001E6C  6A24               	clrf	(___flmul@prod+2)^0,c
  6281  001E6E  6A25               	clrf	(___flmul@prod+3)^0,c
  6282  001E70  5014               	movf	(___flmul@a+1)^0,w,c
  6283  001E72  0210               	mulwf	(___flmul@b+1)^0,c
  6284  001E74  CFF3 F026          	movff	prodl,___flmul@temp
  6285  001E78  CFF4 F027          	movff	prodh,___flmul@temp+1
  6286  001E7C  5026               	movf	___flmul@temp^0,w,c
  6287  001E7E  261C               	addwf	___flmul@grs^0,f,c
  6288  001E80  0E00               	movlw	0
  6289  001E82  221D               	addwfc	(___flmul@grs+1)^0,f,c
  6290  001E84  221E               	addwfc	(___flmul@grs+2)^0,f,c
  6291  001E86  221F               	addwfc	(___flmul@grs+3)^0,f,c
  6292  001E88  5027               	movf	(___flmul@temp+1)^0,w,c
  6293  001E8A  2622               	addwf	___flmul@prod^0,f,c
  6294  001E8C  0E00               	movlw	0
  6295  001E8E  2223               	addwfc	(___flmul@prod+1)^0,f,c
  6296  001E90  2224               	addwfc	(___flmul@prod+2)^0,f,c
  6297  001E92  2225               	addwfc	(___flmul@prod+3)^0,f,c
  6298  001E94  5013               	movf	___flmul@a^0,w,c
  6299  001E96  0211               	mulwf	(___flmul@b+2)^0,c
  6300  001E98  CFF3 F026          	movff	prodl,___flmul@temp
  6301  001E9C  CFF4 F027          	movff	prodh,___flmul@temp+1
  6302  001EA0  5026               	movf	___flmul@temp^0,w,c
  6303  001EA2  261C               	addwf	___flmul@grs^0,f,c
  6304  001EA4  0E00               	movlw	0
  6305  001EA6  221D               	addwfc	(___flmul@grs+1)^0,f,c
  6306  001EA8  221E               	addwfc	(___flmul@grs+2)^0,f,c
  6307  001EAA  221F               	addwfc	(___flmul@grs+3)^0,f,c
  6308  001EAC  5027               	movf	(___flmul@temp+1)^0,w,c
  6309  001EAE  2622               	addwf	___flmul@prod^0,f,c
  6310  001EB0  0E00               	movlw	0
  6311  001EB2  2223               	addwfc	(___flmul@prod+1)^0,f,c
  6312  001EB4  2224               	addwfc	(___flmul@prod+2)^0,f,c
  6313  001EB6  2225               	addwfc	(___flmul@prod+3)^0,f,c
  6314  001EB8  C01E  F01F         	movff	___flmul@grs+2,___flmul@grs+3
  6315  001EBC  C01D  F01E         	movff	___flmul@grs+1,___flmul@grs+2
  6316  001EC0  C01C  F01D         	movff	___flmul@grs,___flmul@grs+1
  6317  001EC4  6A1C               	clrf	___flmul@grs^0,c
  6318  001EC6  5013               	movf	___flmul@a^0,w,c
  6319  001EC8  0210               	mulwf	(___flmul@b+1)^0,c
  6320  001ECA  CFF3 F026          	movff	prodl,___flmul@temp
  6321  001ECE  CFF4 F027          	movff	prodh,___flmul@temp+1
  6322  001ED2  5026               	movf	___flmul@temp^0,w,c
  6323  001ED4  261C               	addwf	___flmul@grs^0,f,c
  6324  001ED6  5027               	movf	(___flmul@temp+1)^0,w,c
  6325  001ED8  221D               	addwfc	(___flmul@grs+1)^0,f,c
  6326  001EDA  0E00               	movlw	0
  6327  001EDC  221E               	addwfc	(___flmul@grs+2)^0,f,c
  6328  001EDE  0E00               	movlw	0
  6329  001EE0  221F               	addwfc	(___flmul@grs+3)^0,f,c
  6330  001EE2  5014               	movf	(___flmul@a+1)^0,w,c
  6331  001EE4  020F               	mulwf	___flmul@b^0,c
  6332  001EE6  CFF3 F026          	movff	prodl,___flmul@temp
  6333  001EEA  CFF4 F027          	movff	prodh,___flmul@temp+1
  6334  001EEE  5026               	movf	___flmul@temp^0,w,c
  6335  001EF0  261C               	addwf	___flmul@grs^0,f,c
  6336  001EF2  5027               	movf	(___flmul@temp+1)^0,w,c
  6337  001EF4  221D               	addwfc	(___flmul@grs+1)^0,f,c
  6338  001EF6  0E00               	movlw	0
  6339  001EF8  221E               	addwfc	(___flmul@grs+2)^0,f,c
  6340  001EFA  0E00               	movlw	0
  6341  001EFC  221F               	addwfc	(___flmul@grs+3)^0,f,c
  6342  001EFE  C01E  F01F         	movff	___flmul@grs+2,___flmul@grs+3
  6343  001F02  C01D  F01E         	movff	___flmul@grs+1,___flmul@grs+2
  6344  001F06  C01C  F01D         	movff	___flmul@grs,___flmul@grs+1
  6345  001F0A  6A1C               	clrf	___flmul@grs^0,c
  6346  001F0C  5013               	movf	___flmul@a^0,w,c
  6347  001F0E  020F               	mulwf	___flmul@b^0,c
  6348  001F10  CFF3 F026          	movff	prodl,___flmul@temp
  6349  001F14  CFF4 F027          	movff	prodh,___flmul@temp+1
  6350  001F18  5026               	movf	___flmul@temp^0,w,c
  6351  001F1A  261C               	addwf	___flmul@grs^0,f,c
  6352  001F1C  5027               	movf	(___flmul@temp+1)^0,w,c
  6353  001F1E  221D               	addwfc	(___flmul@grs+1)^0,f,c
  6354  001F20  0E00               	movlw	0
  6355  001F22  221E               	addwfc	(___flmul@grs+2)^0,f,c
  6356  001F24  0E00               	movlw	0
  6357  001F26  221F               	addwfc	(___flmul@grs+3)^0,f,c
  6358  001F28  5015               	movf	(___flmul@a+2)^0,w,c
  6359  001F2A  0210               	mulwf	(___flmul@b+1)^0,c
  6360  001F2C  CFF3 F026          	movff	prodl,___flmul@temp
  6361  001F30  CFF4 F027          	movff	prodh,___flmul@temp+1
  6362  001F34  5026               	movf	___flmul@temp^0,w,c
  6363  001F36  2622               	addwf	___flmul@prod^0,f,c
  6364  001F38  5027               	movf	(___flmul@temp+1)^0,w,c
  6365  001F3A  2223               	addwfc	(___flmul@prod+1)^0,f,c
  6366  001F3C  0E00               	movlw	0
  6367  001F3E  2224               	addwfc	(___flmul@prod+2)^0,f,c
  6368  001F40  0E00               	movlw	0
  6369  001F42  2225               	addwfc	(___flmul@prod+3)^0,f,c
  6370  001F44  5014               	movf	(___flmul@a+1)^0,w,c
  6371  001F46  0211               	mulwf	(___flmul@b+2)^0,c
  6372  001F48  CFF3 F026          	movff	prodl,___flmul@temp
  6373  001F4C  CFF4 F027          	movff	prodh,___flmul@temp+1
  6374  001F50  5026               	movf	___flmul@temp^0,w,c
  6375  001F52  2622               	addwf	___flmul@prod^0,f,c
  6376  001F54  5027               	movf	(___flmul@temp+1)^0,w,c
  6377  001F56  2223               	addwfc	(___flmul@prod+1)^0,f,c
  6378  001F58  0E00               	movlw	0
  6379  001F5A  2224               	addwfc	(___flmul@prod+2)^0,f,c
  6380  001F5C  0E00               	movlw	0
  6381  001F5E  2225               	addwfc	(___flmul@prod+3)^0,f,c
  6382  001F60  5015               	movf	(___flmul@a+2)^0,w,c
  6383  001F62  0211               	mulwf	(___flmul@b+2)^0,c
  6384  001F64  CFF3 F026          	movff	prodl,___flmul@temp
  6385  001F68  CFF4 F027          	movff	prodh,___flmul@temp+1
  6386  001F6C  5026               	movf	___flmul@temp^0,w,c
  6387  001F6E  6E17               	movwf	??___flmul^0,c
  6388  001F70  5027               	movf	(___flmul@temp+1)^0,w,c
  6389  001F72  6E18               	movwf	(??___flmul+1)^0,c
  6390  001F74  6A19               	clrf	(??___flmul+2)^0,c
  6391  001F76  6A1A               	clrf	(??___flmul+3)^0,c
  6392  001F78  C019  F01A         	movff	??___flmul+2,??___flmul+3
  6393  001F7C  C018  F019         	movff	??___flmul+1,??___flmul+2
  6394  001F80  C017  F018         	movff	??___flmul,??___flmul+1
  6395  001F84  6A17               	clrf	??___flmul^0,c
  6396  001F86  5017               	movf	??___flmul^0,w,c
  6397  001F88  2622               	addwf	___flmul@prod^0,f,c
  6398  001F8A  5018               	movf	(??___flmul+1)^0,w,c
  6399  001F8C  2223               	addwfc	(___flmul@prod+1)^0,f,c
  6400  001F8E  5019               	movf	(??___flmul+2)^0,w,c
  6401  001F90  2224               	addwfc	(___flmul@prod+2)^0,f,c
  6402  001F92  501A               	movf	(??___flmul+3)^0,w,c
  6403  001F94  2225               	addwfc	(___flmul@prod+3)^0,f,c
  6404  001F96  C01C  F017         	movff	___flmul@grs,??___flmul
  6405  001F9A  C01D  F018         	movff	___flmul@grs+1,??___flmul+1
  6406  001F9E  C01E  F019         	movff	___flmul@grs+2,??___flmul+2
  6407  001FA2  C01F  F01A         	movff	___flmul@grs+3,??___flmul+3
  6408  001FA6  0E19               	movlw	25
  6409  001FA8  EFDB  F00F         	goto	u3110
  6410  001FAC                     u3115:
  6411  001FAC  90D8               	bcf	status,0,c
  6412  001FAE  321A               	rrcf	(??___flmul+3)^0,f,c
  6413  001FB0  3219               	rrcf	(??___flmul+2)^0,f,c
  6414  001FB2  3218               	rrcf	(??___flmul+1)^0,f,c
  6415  001FB4  3217               	rrcf	??___flmul^0,f,c
  6416  001FB6                     u3110:
  6417  001FB6  2EE8               	decfsz	wreg,f,c
  6418  001FB8  EFD6  F00F         	goto	u3115
  6419  001FBC  5017               	movf	??___flmul^0,w,c
  6420  001FBE  2622               	addwf	___flmul@prod^0,f,c
  6421  001FC0  5018               	movf	(??___flmul+1)^0,w,c
  6422  001FC2  2223               	addwfc	(___flmul@prod+1)^0,f,c
  6423  001FC4  5019               	movf	(??___flmul+2)^0,w,c
  6424  001FC6  2224               	addwfc	(___flmul@prod+2)^0,f,c
  6425  001FC8  501A               	movf	(??___flmul+3)^0,w,c
  6426  001FCA  2225               	addwfc	(___flmul@prod+3)^0,f,c
  6427  001FCC  C01E  F01F         	movff	___flmul@grs+2,___flmul@grs+3
  6428  001FD0  C01D  F01E         	movff	___flmul@grs+1,___flmul@grs+2
  6429  001FD4  C01C  F01D         	movff	___flmul@grs,___flmul@grs+1
  6430  001FD8  6A1C               	clrf	___flmul@grs^0,c
  6431  001FDA  5020               	movf	___flmul@aexp^0,w,c
  6432  001FDC  C021  F017         	movff	___flmul@bexp,??___flmul
  6433  001FE0  6A18               	clrf	(??___flmul+1)^0,c
  6434  001FE2  2617               	addwf	??___flmul^0,f,c
  6435  001FE4  0E00               	movlw	0
  6436  001FE6  2218               	addwfc	(??___flmul+1)^0,f,c
  6437  001FE8  0E82               	movlw	130
  6438  001FEA  2417               	addwf	??___flmul^0,w,c
  6439  001FEC  6E26               	movwf	___flmul@temp^0,c
  6440  001FEE  0EFF               	movlw	255
  6441  001FF0  2018               	addwfc	(??___flmul+1)^0,w,c
  6442  001FF2  6E27               	movwf	(___flmul@temp+1)^0,c
  6443  001FF4  EF11  F010         	goto	l3065
  6444  001FF8                     l3059:
  6445  001FF8  90D8               	bcf	status,0,c
  6446  001FFA  3622               	rlcf	___flmul@prod^0,f,c
  6447  001FFC  3623               	rlcf	(___flmul@prod+1)^0,f,c
  6448  001FFE  3624               	rlcf	(___flmul@prod+2)^0,f,c
  6449  002000  3625               	rlcf	(___flmul@prod+3)^0,f,c
  6450  002002  AE1F               	btfss	(___flmul@grs+3)^0,7,c
  6451  002004  EF06  F010         	goto	u3121
  6452  002008  EF08  F010         	goto	u3120
  6453  00200C                     u3121:
  6454  00200C  EF09  F010         	goto	l734
  6455  002010                     u3120:
  6456  002010  8022               	bsf	___flmul@prod^0,0,c
  6457  002012                     l734:
  6458  002012  90D8               	bcf	status,0,c
  6459  002014  361C               	rlcf	___flmul@grs^0,f,c
  6460  002016  361D               	rlcf	(___flmul@grs+1)^0,f,c
  6461  002018  361E               	rlcf	(___flmul@grs+2)^0,f,c
  6462  00201A  361F               	rlcf	(___flmul@grs+3)^0,f,c
  6463  00201C  0626               	decf	___flmul@temp^0,f,c
  6464  00201E  A0D8               	btfss	status,0,c
  6465  002020  0627               	decf	(___flmul@temp+1)^0,f,c
  6466  002022                     l3065:
  6467  002022  AE24               	btfss	(___flmul@prod+2)^0,7,c
  6468  002024  EF16  F010         	goto	u3131
  6469  002028  EF18  F010         	goto	u3130
  6470  00202C                     u3131:
  6471  00202C  EFFC  F00F         	goto	l3059
  6472  002030                     u3130:
  6473  002030  0E00               	movlw	0
  6474  002032  6E20               	movwf	___flmul@aexp^0,c
  6475  002034  AE1F               	btfss	(___flmul@grs+3)^0,7,c
  6476  002036  EF1F  F010         	goto	u3141
  6477  00203A  EF21  F010         	goto	u3140
  6478  00203E                     u3141:
  6479  00203E  EF45  F010         	goto	l736
  6480  002042                     u3140:
  6481  002042  0EFF               	movlw	255
  6482  002044  141C               	andwf	___flmul@grs^0,w,c
  6483  002046  6E17               	movwf	??___flmul^0,c
  6484  002048  0EFF               	movlw	255
  6485  00204A  141D               	andwf	(___flmul@grs+1)^0,w,c
  6486  00204C  6E18               	movwf	(??___flmul+1)^0,c
  6487  00204E  0EFF               	movlw	255
  6488  002050  141E               	andwf	(___flmul@grs+2)^0,w,c
  6489  002052  6E19               	movwf	(??___flmul+2)^0,c
  6490  002054  0E7F               	movlw	127
  6491  002056  141F               	andwf	(___flmul@grs+3)^0,w,c
  6492  002058  6E1A               	movwf	(??___flmul+3)^0,c
  6493  00205A  5017               	movf	??___flmul^0,w,c
  6494  00205C  1018               	iorwf	(??___flmul+1)^0,w,c
  6495  00205E  1019               	iorwf	(??___flmul+2)^0,w,c
  6496  002060  101A               	iorwf	(??___flmul+3)^0,w,c
  6497  002062  B4D8               	btfsc	status,2,c
  6498  002064  EF36  F010         	goto	u3151
  6499  002068  EF38  F010         	goto	u3150
  6500  00206C                     u3151:
  6501  00206C  EF3C  F010         	goto	l737
  6502  002070                     u3150:
  6503  002070                     l3073:
  6504  002070  0E01               	movlw	1
  6505  002072  6E20               	movwf	___flmul@aexp^0,c
  6506  002074  EF45  F010         	goto	l736
  6507  002078                     l737:
  6508  002078  A022               	btfss	___flmul@prod^0,0,c
  6509  00207A  EF41  F010         	goto	u3161
  6510  00207E  EF43  F010         	goto	u3160
  6511  002082                     u3161:
  6512  002082  EF45  F010         	goto	l736
  6513  002086                     u3160:
  6514  002086  EF38  F010         	goto	l3073
  6515  00208A                     l736:
  6516  00208A  5020               	movf	___flmul@aexp^0,w,c
  6517  00208C  B4D8               	btfsc	status,2,c
  6518  00208E  EF4B  F010         	goto	u3171
  6519  002092  EF4D  F010         	goto	u3170
  6520  002096                     u3171:
  6521  002096  EF71  F010         	goto	l3085
  6522  00209A                     u3170:
  6523  00209A  0E01               	movlw	1
  6524  00209C  2622               	addwf	___flmul@prod^0,f,c
  6525  00209E  0E00               	movlw	0
  6526  0020A0  2223               	addwfc	(___flmul@prod+1)^0,f,c
  6527  0020A2  2224               	addwfc	(___flmul@prod+2)^0,f,c
  6528  0020A4  2225               	addwfc	(___flmul@prod+3)^0,f,c
  6529  0020A6  A025               	btfss	(___flmul@prod+3)^0,0,c
  6530  0020A8  EF58  F010         	goto	u3181
  6531  0020AC  EF5A  F010         	goto	u3180
  6532  0020B0                     u3181:
  6533  0020B0  EF71  F010         	goto	l3085
  6534  0020B4                     u3180:
  6535  0020B4  C022  F017         	movff	___flmul@prod,??___flmul
  6536  0020B8  C023  F018         	movff	___flmul@prod+1,??___flmul+1
  6537  0020BC  C024  F019         	movff	___flmul@prod+2,??___flmul+2
  6538  0020C0  C025  F01A         	movff	___flmul@prod+3,??___flmul+3
  6539  0020C4  341A               	rlcf	(??___flmul+3)^0,w,c
  6540  0020C6  321A               	rrcf	(??___flmul+3)^0,f,c
  6541  0020C8  3219               	rrcf	(??___flmul+2)^0,f,c
  6542  0020CA  3218               	rrcf	(??___flmul+1)^0,f,c
  6543  0020CC  3217               	rrcf	??___flmul^0,f,c
  6544  0020CE  C017  F022         	movff	??___flmul,___flmul@prod
  6545  0020D2  C018  F023         	movff	??___flmul+1,___flmul@prod+1
  6546  0020D6  C019  F024         	movff	??___flmul+2,___flmul@prod+2
  6547  0020DA  C01A  F025         	movff	??___flmul+3,___flmul@prod+3
  6548  0020DE  4A26               	infsnz	___flmul@temp^0,f,c
  6549  0020E0  2A27               	incf	(___flmul@temp+1)^0,f,c
  6550  0020E2                     l3085:
  6551  0020E2  BE27               	btfsc	(___flmul@temp+1)^0,7,c
  6552  0020E4  EF7C  F010         	goto	u3191
  6553  0020E8  5027               	movf	(___flmul@temp+1)^0,w,c
  6554  0020EA  E108               	bnz	u3190
  6555  0020EC  2826               	incf	___flmul@temp^0,w,c
  6556  0020EE  A0D8               	btfss	status,0,c
  6557  0020F0  EF7C  F010         	goto	u3191
  6558  0020F4  EF7E  F010         	goto	u3190
  6559  0020F8                     u3191:
  6560  0020F8  EF88  F010         	goto	l3089
  6561  0020FC                     u3190:
  6562  0020FC  0E00               	movlw	0
  6563  0020FE  6E22               	movwf	___flmul@prod^0,c
  6564  002100  0E00               	movlw	0
  6565  002102  6E23               	movwf	(___flmul@prod+1)^0,c
  6566  002104  0E80               	movlw	128
  6567  002106  6E24               	movwf	(___flmul@prod+2)^0,c
  6568  002108  0E7F               	movlw	127
  6569  00210A  6E25               	movwf	(___flmul@prod+3)^0,c
  6570  00210C  EFB6  F010         	goto	l3101
  6571  002110                     l3089:
  6572  002110  BE27               	btfsc	(___flmul@temp+1)^0,7,c
  6573  002112  EF95  F010         	goto	u3200
  6574  002116  5027               	movf	(___flmul@temp+1)^0,w,c
  6575  002118  E106               	bnz	u3201
  6576  00211A  0426               	decf	___flmul@temp^0,w,c
  6577  00211C  B0D8               	btfsc	status,0,c
  6578  00211E  EF93  F010         	goto	u3201
  6579  002122  EF95  F010         	goto	u3200
  6580  002126                     u3201:
  6581  002126  EFA1  F010         	goto	l744
  6582  00212A                     u3200:
  6583  00212A  0E00               	movlw	0
  6584  00212C  6E22               	movwf	___flmul@prod^0,c
  6585  00212E  0E00               	movlw	0
  6586  002130  6E23               	movwf	(___flmul@prod+1)^0,c
  6587  002132  0E00               	movlw	0
  6588  002134  6E24               	movwf	(___flmul@prod+2)^0,c
  6589  002136  0E00               	movlw	0
  6590  002138  6E25               	movwf	(___flmul@prod+3)^0,c
  6591  00213A  0E00               	movlw	0
  6592  00213C  6E1B               	movwf	___flmul@sign^0,c
  6593  00213E  EFB6  F010         	goto	l3101
  6594  002142                     l744:
  6595  002142  C026  F021         	movff	___flmul@temp,___flmul@bexp
  6596  002146  0EFF               	movlw	255
  6597  002148  1622               	andwf	___flmul@prod^0,f,c
  6598  00214A  0EFF               	movlw	255
  6599  00214C  1623               	andwf	(___flmul@prod+1)^0,f,c
  6600  00214E  0E7F               	movlw	127
  6601  002150  1624               	andwf	(___flmul@prod+2)^0,f,c
  6602  002152  0E00               	movlw	0
  6603  002154  1625               	andwf	(___flmul@prod+3)^0,f,c
  6604  002156  A021               	btfss	___flmul@bexp^0,0,c
  6605  002158  EFB0  F010         	goto	u3211
  6606  00215C  EFB2  F010         	goto	u3210
  6607  002160                     u3211:
  6608  002160  EFB3  F010         	goto	l3099
  6609  002164                     u3210:
  6610  002164  8E24               	bsf	(___flmul@prod+2)^0,7,c
  6611  002166                     l3099:
  6612  002166  90D8               	bcf	status,0,c
  6613  002168  3021               	rrcf	___flmul@bexp^0,w,c
  6614  00216A  6E25               	movwf	(___flmul@prod+3)^0,c
  6615  00216C                     l3101:
  6616  00216C  501B               	movf	___flmul@sign^0,w,c
  6617  00216E  1225               	iorwf	(___flmul@prod+3)^0,f,c
  6618  002170  C022  F00F         	movff	___flmul@prod,?___flmul
  6619  002174  C023  F010         	movff	___flmul@prod+1,?___flmul+1
  6620  002178  C024  F011         	movff	___flmul@prod+2,?___flmul+2
  6621  00217C  C025  F012         	movff	___flmul@prod+3,?___flmul+3
  6622  002180                     l731:
  6623  002180  0012               	return		;funcret
  6624  002182                     __end_of___flmul:
  6625                           	callstack 0
  6626                           
  6627 ;; *************** function ___flge *****************
  6628 ;; Defined at:
  6629 ;;		line 4 in file "C:\Program Files\Microchip\xc8\v2.36\pic\sources\c99\common\flge.c"
  6630 ;; Parameters:    Size  Location     Type
  6631 ;;  ff1             4   39[COMRAM] unsigned char 
  6632 ;;  ff2             4   43[COMRAM] unsigned char 
  6633 ;; Auto vars:     Size  Location     Type
  6634 ;;		None
  6635 ;; Return value:  Size  Location     Type
  6636 ;;		None               void
  6637 ;; Registers used:
  6638 ;;		wreg, status,2, status,0
  6639 ;; Tracked objects:
  6640 ;;		On entry : 0/0
  6641 ;;		On exit  : 0/0
  6642 ;;		Unchanged: 0/0
  6643 ;; Data sizes:     COMRAM   BANK0   BANK1   BANK2   BANK3   BANK4   BANK5   BANK6   BANK7
  6644 ;;      Params:         8       0       0       0       0       0       0       0       0
  6645 ;;      Locals:         0       0       0       0       0       0       0       0       0
  6646 ;;      Temps:          4       0       0       0       0       0       0       0       0
  6647 ;;      Totals:        12       0       0       0       0       0       0       0       0
  6648 ;;Total ram usage:       12 bytes
  6649 ;; Hardware stack levels used: 1
  6650 ;; This function calls:
  6651 ;;		Nothing
  6652 ;; This function is called by:
  6653 ;;		_efgtoa
  6654 ;; This function uses a non-reentrant model
  6655 ;;
  6656                           
  6657                           	psect	text24
  6658  002CB6                     __ptext24:
  6659                           	callstack 0
  6660  002CB6                     ___flge:
  6661                           	callstack 25
  6662  002CB6  0E00               	movlw	0
  6663  002CB8  1428               	andwf	___flge@ff1^0,w,c
  6664  002CBA  6E30               	movwf	??___flge^0,c
  6665  002CBC  0E00               	movlw	0
  6666  002CBE  1429               	andwf	(___flge@ff1+1)^0,w,c
  6667  002CC0  6E31               	movwf	(??___flge+1)^0,c
  6668  002CC2  0E80               	movlw	128
  6669  002CC4  142A               	andwf	(___flge@ff1+2)^0,w,c
  6670  002CC6  6E32               	movwf	(??___flge+2)^0,c
  6671  002CC8  0E7F               	movlw	127
  6672  002CCA  142B               	andwf	(___flge@ff1+3)^0,w,c
  6673  002CCC  6E33               	movwf	(??___flge+3)^0,c
  6674  002CCE  5030               	movf	??___flge^0,w,c
  6675  002CD0  1031               	iorwf	(??___flge+1)^0,w,c
  6676  002CD2  1032               	iorwf	(??___flge+2)^0,w,c
  6677  002CD4  1033               	iorwf	(??___flge+3)^0,w,c
  6678  002CD6  A4D8               	btfss	status,2,c
  6679  002CD8  EF70  F016         	goto	u3371
  6680  002CDC  EF72  F016         	goto	u3370
  6681  002CE0                     u3371:
  6682  002CE0  EF7A  F016         	goto	l3213
  6683  002CE4                     u3370:
  6684  002CE4  0E00               	movlw	0
  6685  002CE6  6E28               	movwf	___flge@ff1^0,c
  6686  002CE8  0E00               	movlw	0
  6687  002CEA  6E29               	movwf	(___flge@ff1+1)^0,c
  6688  002CEC  0E00               	movlw	0
  6689  002CEE  6E2A               	movwf	(___flge@ff1+2)^0,c
  6690  002CF0  0E00               	movlw	0
  6691  002CF2  6E2B               	movwf	(___flge@ff1+3)^0,c
  6692  002CF4                     l3213:
  6693  002CF4  0E00               	movlw	0
  6694  002CF6  142C               	andwf	___flge@ff2^0,w,c
  6695  002CF8  6E30               	movwf	??___flge^0,c
  6696  002CFA  0E00               	movlw	0
  6697  002CFC  142D               	andwf	(___flge@ff2+1)^0,w,c
  6698  002CFE  6E31               	movwf	(??___flge+1)^0,c
  6699  002D00  0E80               	movlw	128
  6700  002D02  142E               	andwf	(___flge@ff2+2)^0,w,c
  6701  002D04  6E32               	movwf	(??___flge+2)^0,c
  6702  002D06  0E7F               	movlw	127
  6703  002D08  142F               	andwf	(___flge@ff2+3)^0,w,c
  6704  002D0A  6E33               	movwf	(??___flge+3)^0,c
  6705  002D0C  5030               	movf	??___flge^0,w,c
  6706  002D0E  1031               	iorwf	(??___flge+1)^0,w,c
  6707  002D10  1032               	iorwf	(??___flge+2)^0,w,c
  6708  002D12  1033               	iorwf	(??___flge+3)^0,w,c
  6709  002D14  A4D8               	btfss	status,2,c
  6710  002D16  EF8F  F016         	goto	u3381
  6711  002D1A  EF91  F016         	goto	u3380
  6712  002D1E                     u3381:
  6713  002D1E  EF99  F016         	goto	l3217
  6714  002D22                     u3380:
  6715  002D22  0E00               	movlw	0
  6716  002D24  6E2C               	movwf	___flge@ff2^0,c
  6717  002D26  0E00               	movlw	0
  6718  002D28  6E2D               	movwf	(___flge@ff2+1)^0,c
  6719  002D2A  0E00               	movlw	0
  6720  002D2C  6E2E               	movwf	(___flge@ff2+2)^0,c
  6721  002D2E  0E00               	movlw	0
  6722  002D30  6E2F               	movwf	(___flge@ff2+3)^0,c
  6723  002D32                     l3217:
  6724  002D32  AE2B               	btfss	(___flge@ff1+3)^0,7,c
  6725  002D34  EF9E  F016         	goto	u3391
  6726  002D38  EFA0  F016         	goto	u3390
  6727  002D3C                     u3391:
  6728  002D3C  EFA9  F016         	goto	l3221
  6729  002D40                     u3390:
  6730  002D40  6C28               	negf	___flge@ff1^0,c
  6731  002D42  1E29               	comf	(___flge@ff1+1)^0,f,c
  6732  002D44  B0D8               	btfsc	status,0,c
  6733  002D46  2A29               	incf	(___flge@ff1+1)^0,f,c
  6734  002D48  1E2A               	comf	(___flge@ff1+2)^0,f,c
  6735  002D4A  B0D8               	btfsc	status,0,c
  6736  002D4C  2A2A               	incf	(___flge@ff1+2)^0,f,c
  6737  002D4E  0E80               	movlw	128
  6738  002D50  562B               	subfwb	(___flge@ff1+3)^0,f,c
  6739  002D52                     l3221:
  6740  002D52  AE2F               	btfss	(___flge@ff2+3)^0,7,c
  6741  002D54  EFAE  F016         	goto	u3401
  6742  002D58  EFB0  F016         	goto	u3400
  6743  002D5C                     u3401:
  6744  002D5C  EFB9  F016         	goto	l378
  6745  002D60                     u3400:
  6746  002D60  6C2C               	negf	___flge@ff2^0,c
  6747  002D62  1E2D               	comf	(___flge@ff2+1)^0,f,c
  6748  002D64  B0D8               	btfsc	status,0,c
  6749  002D66  2A2D               	incf	(___flge@ff2+1)^0,f,c
  6750  002D68  1E2E               	comf	(___flge@ff2+2)^0,f,c
  6751  002D6A  B0D8               	btfsc	status,0,c
  6752  002D6C  2A2E               	incf	(___flge@ff2+2)^0,f,c
  6753  002D6E  0E80               	movlw	128
  6754  002D70  562F               	subfwb	(___flge@ff2+3)^0,f,c
  6755  002D72                     l378:
  6756  002D72  0E00               	movlw	0
  6757  002D74  1A28               	xorwf	___flge@ff1^0,f,c
  6758  002D76  0E00               	movlw	0
  6759  002D78  1A29               	xorwf	(___flge@ff1+1)^0,f,c
  6760  002D7A  0E00               	movlw	0
  6761  002D7C  1A2A               	xorwf	(___flge@ff1+2)^0,f,c
  6762  002D7E  0E80               	movlw	128
  6763  002D80  1A2B               	xorwf	(___flge@ff1+3)^0,f,c
  6764  002D82  0E00               	movlw	0
  6765  002D84  1A2C               	xorwf	___flge@ff2^0,f,c
  6766  002D86  0E00               	movlw	0
  6767  002D88  1A2D               	xorwf	(___flge@ff2+1)^0,f,c
  6768  002D8A  0E00               	movlw	0
  6769  002D8C  1A2E               	xorwf	(___flge@ff2+2)^0,f,c
  6770  002D8E  0E80               	movlw	128
  6771  002D90  1A2F               	xorwf	(___flge@ff2+3)^0,f,c
  6772  002D92  502C               	movf	___flge@ff2^0,w,c
  6773  002D94  5C28               	subwf	___flge@ff1^0,w,c
  6774  002D96  502D               	movf	(___flge@ff2+1)^0,w,c
  6775  002D98  5829               	subwfb	(___flge@ff1+1)^0,w,c
  6776  002D9A  502E               	movf	(___flge@ff2+2)^0,w,c
  6777  002D9C  582A               	subwfb	(___flge@ff1+2)^0,w,c
  6778  002D9E  502F               	movf	(___flge@ff2+3)^0,w,c
  6779  002DA0  582B               	subwfb	(___flge@ff1+3)^0,w,c
  6780  002DA2  B0D8               	btfsc	status,0,c
  6781  002DA4  EFD6  F016         	goto	u3411
  6782  002DA8  EFD8  F016         	goto	u3410
  6783  002DAC                     u3411:
  6784  002DAC  EFDB  F016         	goto	l3227
  6785  002DB0                     u3410:
  6786  002DB0  90D8               	bcf	status,0,c
  6787  002DB2  EFDC  F016         	goto	l383
  6788  002DB6                     l3227:
  6789  002DB6  80D8               	bsf	status,0,c
  6790  002DB8                     l383:
  6791  002DB8  0012               	return		;funcret
  6792  002DBA                     __end_of___flge:
  6793                           	callstack 0
  6794                           
  6795 ;; *************** function ___fleq *****************
  6796 ;; Defined at:
  6797 ;;		line 4 in file "C:\Program Files\Microchip\xc8\v2.36\pic\sources\c99\common\fleq.c"
  6798 ;; Parameters:    Size  Location     Type
  6799 ;;  ff1             4    0[COMRAM] unsigned char 
  6800 ;;  ff2             4    4[COMRAM] unsigned char 
  6801 ;; Auto vars:     Size  Location     Type
  6802 ;;		None
  6803 ;; Return value:  Size  Location     Type
  6804 ;;		None               void
  6805 ;; Registers used:
  6806 ;;		wreg, status,2, status,0
  6807 ;; Tracked objects:
  6808 ;;		On entry : 0/0
  6809 ;;		On exit  : 0/0
  6810 ;;		Unchanged: 0/0
  6811 ;; Data sizes:     COMRAM   BANK0   BANK1   BANK2   BANK3   BANK4   BANK5   BANK6   BANK7
  6812 ;;      Params:         8       0       0       0       0       0       0       0       0
  6813 ;;      Locals:         0       0       0       0       0       0       0       0       0
  6814 ;;      Temps:          4       0       0       0       0       0       0       0       0
  6815 ;;      Totals:        12       0       0       0       0       0       0       0       0
  6816 ;;Total ram usage:       12 bytes
  6817 ;; Hardware stack levels used: 1
  6818 ;; This function calls:
  6819 ;;		Nothing
  6820 ;; This function is called by:
  6821 ;;		_potentiometer_temperature
  6822 ;;		_efgtoa
  6823 ;; This function uses a non-reentrant model
  6824 ;;
  6825                           
  6826                           	psect	text25
  6827  003386                     __ptext25:
  6828                           	callstack 0
  6829  003386                     ___fleq:
  6830                           	callstack 25
  6831  003386  0E00               	movlw	0
  6832  003388  1401               	andwf	___fleq@ff1^0,w,c
  6833  00338A  6E09               	movwf	??___fleq^0,c
  6834  00338C  0E00               	movlw	0
  6835  00338E  1402               	andwf	(___fleq@ff1+1)^0,w,c
  6836  003390  6E0A               	movwf	(??___fleq+1)^0,c
  6837  003392  0E80               	movlw	128
  6838  003394  1403               	andwf	(___fleq@ff1+2)^0,w,c
  6839  003396  6E0B               	movwf	(??___fleq+2)^0,c
  6840  003398  0E7F               	movlw	127
  6841  00339A  1404               	andwf	(___fleq@ff1+3)^0,w,c
  6842  00339C  6E0C               	movwf	(??___fleq+3)^0,c
  6843  00339E  5009               	movf	??___fleq^0,w,c
  6844  0033A0  100A               	iorwf	(??___fleq+1)^0,w,c
  6845  0033A2  100B               	iorwf	(??___fleq+2)^0,w,c
  6846  0033A4  100C               	iorwf	(??___fleq+3)^0,w,c
  6847  0033A6  A4D8               	btfss	status,2,c
  6848  0033A8  EFD8  F019         	goto	u3341
  6849  0033AC  EFDA  F019         	goto	u3340
  6850  0033B0                     u3341:
  6851  0033B0  EFE2  F019         	goto	l3197
  6852  0033B4                     u3340:
  6853  0033B4  0E00               	movlw	0
  6854  0033B6  6E01               	movwf	___fleq@ff1^0,c
  6855  0033B8  0E00               	movlw	0
  6856  0033BA  6E02               	movwf	(___fleq@ff1+1)^0,c
  6857  0033BC  0E00               	movlw	0
  6858  0033BE  6E03               	movwf	(___fleq@ff1+2)^0,c
  6859  0033C0  0E00               	movlw	0
  6860  0033C2  6E04               	movwf	(___fleq@ff1+3)^0,c
  6861  0033C4                     l3197:
  6862  0033C4  0E00               	movlw	0
  6863  0033C6  1405               	andwf	___fleq@ff2^0,w,c
  6864  0033C8  6E09               	movwf	??___fleq^0,c
  6865  0033CA  0E00               	movlw	0
  6866  0033CC  1406               	andwf	(___fleq@ff2+1)^0,w,c
  6867  0033CE  6E0A               	movwf	(??___fleq+1)^0,c
  6868  0033D0  0E80               	movlw	128
  6869  0033D2  1407               	andwf	(___fleq@ff2+2)^0,w,c
  6870  0033D4  6E0B               	movwf	(??___fleq+2)^0,c
  6871  0033D6  0E7F               	movlw	127
  6872  0033D8  1408               	andwf	(___fleq@ff2+3)^0,w,c
  6873  0033DA  6E0C               	movwf	(??___fleq+3)^0,c
  6874  0033DC  5009               	movf	??___fleq^0,w,c
  6875  0033DE  100A               	iorwf	(??___fleq+1)^0,w,c
  6876  0033E0  100B               	iorwf	(??___fleq+2)^0,w,c
  6877  0033E2  100C               	iorwf	(??___fleq+3)^0,w,c
  6878  0033E4  A4D8               	btfss	status,2,c
  6879  0033E6  EFF7  F019         	goto	u3351
  6880  0033EA  EFF9  F019         	goto	u3350
  6881  0033EE                     u3351:
  6882  0033EE  EF01  F01A         	goto	l3201
  6883  0033F2                     u3350:
  6884  0033F2  0E00               	movlw	0
  6885  0033F4  6E05               	movwf	___fleq@ff2^0,c
  6886  0033F6  0E00               	movlw	0
  6887  0033F8  6E06               	movwf	(___fleq@ff2+1)^0,c
  6888  0033FA  0E00               	movlw	0
  6889  0033FC  6E07               	movwf	(___fleq@ff2+2)^0,c
  6890  0033FE  0E00               	movlw	0
  6891  003400  6E08               	movwf	(___fleq@ff2+3)^0,c
  6892  003402                     l3201:
  6893  003402  5005               	movf	___fleq@ff2^0,w,c
  6894  003404  1801               	xorwf	___fleq@ff1^0,w,c
  6895  003406  E10F               	bnz	u3360
  6896  003408  5006               	movf	(___fleq@ff2+1)^0,w,c
  6897  00340A  1802               	xorwf	(___fleq@ff1+1)^0,w,c
  6898  00340C  E10C               	bnz	u3360
  6899  00340E  5007               	movf	(___fleq@ff2+2)^0,w,c
  6900  003410  1803               	xorwf	(___fleq@ff1+2)^0,w,c
  6901  003412  E109               	bnz	u3360
  6902  003414  5008               	movf	(___fleq@ff2+3)^0,w,c
  6903  003416  1804               	xorwf	(___fleq@ff1+3)^0,w,c
  6904  003418  B4D8               	btfsc	status,2,c
  6905  00341A  EF11  F01A         	goto	u3361
  6906  00341E  EF13  F01A         	goto	u3360
  6907  003422                     u3361:
  6908  003422  EF16  F01A         	goto	l3205
  6909  003426                     u3360:
  6910  003426  90D8               	bcf	status,0,c
  6911  003428  EF17  F01A         	goto	l372
  6912  00342C                     l3205:
  6913  00342C  80D8               	bsf	status,0,c
  6914  00342E                     l372:
  6915  00342E  0012               	return		;funcret
  6916  003430                     __end_of___fleq:
  6917                           	callstack 0
  6918                           
  6919 ;; *************** function ___fldiv *****************
  6920 ;; Defined at:
  6921 ;;		line 11 in file "C:\Program Files\Microchip\xc8\v2.36\pic\sources\c99\common\sprcdiv.c"
  6922 ;; Parameters:    Size  Location     Type
  6923 ;;  b               4    0[COMRAM] unsigned char 
  6924 ;;  a               4    4[COMRAM] unsigned char 
  6925 ;; Auto vars:     Size  Location     Type
  6926 ;;  grs             4   19[COMRAM] unsigned long 
  6927 ;;  rem             4   12[COMRAM] unsigned long 
  6928 ;;  new_exp         2   17[COMRAM] short 
  6929 ;;  aexp            1   24[COMRAM] unsigned char 
  6930 ;;  bexp            1   23[COMRAM] unsigned char 
  6931 ;;  sign            1   16[COMRAM] unsigned char 
  6932 ;; Return value:  Size  Location     Type
  6933 ;;                  4    0[COMRAM] unsigned char 
  6934 ;; Registers used:
  6935 ;;		wreg, status,2, status,0
  6936 ;; Tracked objects:
  6937 ;;		On entry : 0/0
  6938 ;;		On exit  : 0/0
  6939 ;;		Unchanged: 0/0
  6940 ;; Data sizes:     COMRAM   BANK0   BANK1   BANK2   BANK3   BANK4   BANK5   BANK6   BANK7
  6941 ;;      Params:         8       0       0       0       0       0       0       0       0
  6942 ;;      Locals:        13       0       0       0       0       0       0       0       0
  6943 ;;      Temps:          4       0       0       0       0       0       0       0       0
  6944 ;;      Totals:        25       0       0       0       0       0       0       0       0
  6945 ;;Total ram usage:       25 bytes
  6946 ;; Hardware stack levels used: 1
  6947 ;; This function calls:
  6948 ;;		Nothing
  6949 ;; This function is called by:
  6950 ;;		_efgtoa
  6951 ;; This function uses a non-reentrant model
  6952 ;;
  6953                           
  6954                           	psect	text26
  6955  002182                     __ptext26:
  6956                           	callstack 0
  6957  002182                     ___fldiv:
  6958                           	callstack 25
  6959  002182  5004               	movf	(___fldiv@b+3)^0,w,c
  6960  002184  0B80               	andlw	128
  6961  002186  6E11               	movwf	___fldiv@sign^0,c
  6962  002188  5004               	movf	(___fldiv@b+3)^0,w,c
  6963  00218A  2404               	addwf	(___fldiv@b+3)^0,w,c
  6964  00218C  6E18               	movwf	___fldiv@bexp^0,c
  6965  00218E  AE03               	btfss	(___fldiv@b+2)^0,7,c
  6966  002190  EFCC  F010         	goto	u2801
  6967  002194  EFCE  F010         	goto	u2800
  6968  002198                     u2801:
  6969  002198  EFCF  F010         	goto	l2845
  6970  00219C                     u2800:
  6971  00219C  8018               	bsf	___fldiv@bexp^0,0,c
  6972  00219E                     l2845:
  6973  00219E  5018               	movf	___fldiv@bexp^0,w,c
  6974  0021A0  B4D8               	btfsc	status,2,c
  6975  0021A2  EFD5  F010         	goto	u2811
  6976  0021A6  EFD7  F010         	goto	u2810
  6977  0021AA                     u2811:
  6978  0021AA  EFEC  F010         	goto	l2855
  6979  0021AE                     u2810:
  6980  0021AE  2818               	incf	___fldiv@bexp^0,w,c
  6981  0021B0  A4D8               	btfss	status,2,c
  6982  0021B2  EFDD  F010         	goto	u2821
  6983  0021B6  EFDF  F010         	goto	u2820
  6984  0021BA                     u2821:
  6985  0021BA  EFE7  F010         	goto	l2851
  6986  0021BE                     u2820:
  6987  0021BE  0E00               	movlw	0
  6988  0021C0  6E01               	movwf	___fldiv@b^0,c
  6989  0021C2  0E00               	movlw	0
  6990  0021C4  6E02               	movwf	(___fldiv@b+1)^0,c
  6991  0021C6  0E00               	movlw	0
  6992  0021C8  6E03               	movwf	(___fldiv@b+2)^0,c
  6993  0021CA  0E00               	movlw	0
  6994  0021CC  6E04               	movwf	(___fldiv@b+3)^0,c
  6995  0021CE                     l2851:
  6996  0021CE  8E03               	bsf	(___fldiv@b+2)^0,7,c
  6997  0021D0  0E00               	movlw	0
  6998  0021D2  6E04               	movwf	(___fldiv@b+3)^0,c
  6999  0021D4  EFF4  F010         	goto	l2857
  7000  0021D8                     l2855:
  7001  0021D8  0E00               	movlw	0
  7002  0021DA  6E01               	movwf	___fldiv@b^0,c
  7003  0021DC  0E00               	movlw	0
  7004  0021DE  6E02               	movwf	(___fldiv@b+1)^0,c
  7005  0021E0  0E00               	movlw	0
  7006  0021E2  6E03               	movwf	(___fldiv@b+2)^0,c
  7007  0021E4  0E00               	movlw	0
  7008  0021E6  6E04               	movwf	(___fldiv@b+3)^0,c
  7009  0021E8                     l2857:
  7010  0021E8  5008               	movf	(___fldiv@a+3)^0,w,c
  7011  0021EA  0B80               	andlw	128
  7012  0021EC  1A11               	xorwf	___fldiv@sign^0,f,c
  7013  0021EE  5008               	movf	(___fldiv@a+3)^0,w,c
  7014  0021F0  2408               	addwf	(___fldiv@a+3)^0,w,c
  7015  0021F2  6E19               	movwf	___fldiv@aexp^0,c
  7016  0021F4  AE07               	btfss	(___fldiv@a+2)^0,7,c
  7017  0021F6  EFFF  F010         	goto	u2831
  7018  0021FA  EF01  F011         	goto	u2830
  7019  0021FE                     u2831:
  7020  0021FE  EF02  F011         	goto	l2865
  7021  002202                     u2830:
  7022  002202  8019               	bsf	___fldiv@aexp^0,0,c
  7023  002204                     l2865:
  7024  002204  5019               	movf	___fldiv@aexp^0,w,c
  7025  002206  B4D8               	btfsc	status,2,c
  7026  002208  EF08  F011         	goto	u2841
  7027  00220C  EF0A  F011         	goto	u2840
  7028  002210                     u2841:
  7029  002210  EF1F  F011         	goto	l2875
  7030  002214                     u2840:
  7031  002214  2819               	incf	___fldiv@aexp^0,w,c
  7032  002216  A4D8               	btfss	status,2,c
  7033  002218  EF10  F011         	goto	u2851
  7034  00221C  EF12  F011         	goto	u2850
  7035  002220                     u2851:
  7036  002220  EF1A  F011         	goto	l2871
  7037  002224                     u2850:
  7038  002224  0E00               	movlw	0
  7039  002226  6E05               	movwf	___fldiv@a^0,c
  7040  002228  0E00               	movlw	0
  7041  00222A  6E06               	movwf	(___fldiv@a+1)^0,c
  7042  00222C  0E00               	movlw	0
  7043  00222E  6E07               	movwf	(___fldiv@a+2)^0,c
  7044  002230  0E00               	movlw	0
  7045  002232  6E08               	movwf	(___fldiv@a+3)^0,c
  7046  002234                     l2871:
  7047  002234  8E07               	bsf	(___fldiv@a+2)^0,7,c
  7048  002236  0E00               	movlw	0
  7049  002238  6E08               	movwf	(___fldiv@a+3)^0,c
  7050  00223A  EF27  F011         	goto	l2877
  7051  00223E                     l2875:
  7052  00223E  0E00               	movlw	0
  7053  002240  6E05               	movwf	___fldiv@a^0,c
  7054  002242  0E00               	movlw	0
  7055  002244  6E06               	movwf	(___fldiv@a+1)^0,c
  7056  002246  0E00               	movlw	0
  7057  002248  6E07               	movwf	(___fldiv@a+2)^0,c
  7058  00224A  0E00               	movlw	0
  7059  00224C  6E08               	movwf	(___fldiv@a+3)^0,c
  7060  00224E                     l2877:
  7061  00224E  5005               	movf	___fldiv@a^0,w,c
  7062  002250  1006               	iorwf	(___fldiv@a+1)^0,w,c
  7063  002252  1007               	iorwf	(___fldiv@a+2)^0,w,c
  7064  002254  1008               	iorwf	(___fldiv@a+3)^0,w,c
  7065  002256  A4D8               	btfss	status,2,c
  7066  002258  EF30  F011         	goto	u2861
  7067  00225C  EF32  F011         	goto	u2860
  7068  002260                     u2861:
  7069  002260  EF4A  F011         	goto	l2889
  7070  002264                     u2860:
  7071  002264  0E00               	movlw	0
  7072  002266  6E01               	movwf	___fldiv@b^0,c
  7073  002268  0E00               	movlw	0
  7074  00226A  6E02               	movwf	(___fldiv@b+1)^0,c
  7075  00226C  0E00               	movlw	0
  7076  00226E  6E03               	movwf	(___fldiv@b+2)^0,c
  7077  002270  0E00               	movlw	0
  7078  002272  6E04               	movwf	(___fldiv@b+3)^0,c
  7079  002274  0E80               	movlw	128
  7080  002276  1203               	iorwf	(___fldiv@b+2)^0,f,c
  7081  002278  0E7F               	movlw	127
  7082  00227A  1204               	iorwf	(___fldiv@b+3)^0,f,c
  7083  00227C                     l2883:
  7084  00227C  5011               	movf	___fldiv@sign^0,w,c
  7085  00227E  1204               	iorwf	(___fldiv@b+3)^0,f,c
  7086  002280  C001  F001         	movff	___fldiv@b,?___fldiv
  7087  002284  C002  F002         	movff	___fldiv@b+1,?___fldiv+1
  7088  002288  C003  F003         	movff	___fldiv@b+2,?___fldiv+2
  7089  00228C  C004  F004         	movff	___fldiv@b+3,?___fldiv+3
  7090  002290  EF8D  F012         	goto	l695
  7091  002294                     l2889:
  7092  002294  5018               	movf	___fldiv@bexp^0,w,c
  7093  002296  A4D8               	btfss	status,2,c
  7094  002298  EF50  F011         	goto	u2871
  7095  00229C  EF52  F011         	goto	u2870
  7096  0022A0                     u2871:
  7097  0022A0  EF5C  F011         	goto	l2897
  7098  0022A4                     u2870:
  7099  0022A4  0E00               	movlw	0
  7100  0022A6  6E01               	movwf	?___fldiv^0,c
  7101  0022A8  0E00               	movlw	0
  7102  0022AA  6E02               	movwf	(?___fldiv+1)^0,c
  7103  0022AC  0E00               	movlw	0
  7104  0022AE  6E03               	movwf	(?___fldiv+2)^0,c
  7105  0022B0  0E00               	movlw	0
  7106  0022B2  6E04               	movwf	(?___fldiv+3)^0,c
  7107  0022B4  EF8D  F012         	goto	l695
  7108  0022B8                     l2897:
  7109  0022B8  5019               	movf	___fldiv@aexp^0,w,c
  7110  0022BA  C018  F009         	movff	___fldiv@bexp,??___fldiv
  7111  0022BE  6A0A               	clrf	(??___fldiv+1)^0,c
  7112  0022C0  5E09               	subwf	??___fldiv^0,f,c
  7113  0022C2  0E00               	movlw	0
  7114  0022C4  5A0A               	subwfb	(??___fldiv+1)^0,f,c
  7115  0022C6  0E7F               	movlw	127
  7116  0022C8  2409               	addwf	??___fldiv^0,w,c
  7117  0022CA  6E12               	movwf	___fldiv@new_exp^0,c
  7118  0022CC  0E00               	movlw	0
  7119  0022CE  200A               	addwfc	(??___fldiv+1)^0,w,c
  7120  0022D0  6E13               	movwf	(___fldiv@new_exp+1)^0,c
  7121  0022D2  C001  F00D         	movff	___fldiv@b,___fldiv@rem
  7122  0022D6  C002  F00E         	movff	___fldiv@b+1,___fldiv@rem+1
  7123  0022DA  C003  F00F         	movff	___fldiv@b+2,___fldiv@rem+2
  7124  0022DE  C004  F010         	movff	___fldiv@b+3,___fldiv@rem+3
  7125  0022E2  0E00               	movlw	0
  7126  0022E4  6E01               	movwf	___fldiv@b^0,c
  7127  0022E6  0E00               	movlw	0
  7128  0022E8  6E02               	movwf	(___fldiv@b+1)^0,c
  7129  0022EA  0E00               	movlw	0
  7130  0022EC  6E03               	movwf	(___fldiv@b+2)^0,c
  7131  0022EE  0E00               	movlw	0
  7132  0022F0  6E04               	movwf	(___fldiv@b+3)^0,c
  7133  0022F2  0E00               	movlw	0
  7134  0022F4  6E14               	movwf	___fldiv@grs^0,c
  7135  0022F6  0E00               	movlw	0
  7136  0022F8  6E15               	movwf	(___fldiv@grs+1)^0,c
  7137  0022FA  0E00               	movlw	0
  7138  0022FC  6E16               	movwf	(___fldiv@grs+2)^0,c
  7139  0022FE  0E00               	movlw	0
  7140  002300  6E17               	movwf	(___fldiv@grs+3)^0,c
  7141  002302  0E00               	movlw	0
  7142  002304  6E19               	movwf	___fldiv@aexp^0,c
  7143  002306  EFBD  F011         	goto	l697
  7144  00230A                     l2907:
  7145  00230A  5019               	movf	___fldiv@aexp^0,w,c
  7146  00230C  B4D8               	btfsc	status,2,c
  7147  00230E  EF8B  F011         	goto	u2881
  7148  002312  EF8D  F011         	goto	u2880
  7149  002316                     u2881:
  7150  002316  EFA4  F011         	goto	l2915
  7151  00231A                     u2880:
  7152  00231A  90D8               	bcf	status,0,c
  7153  00231C  360D               	rlcf	___fldiv@rem^0,f,c
  7154  00231E  360E               	rlcf	(___fldiv@rem+1)^0,f,c
  7155  002320  360F               	rlcf	(___fldiv@rem+2)^0,f,c
  7156  002322  3610               	rlcf	(___fldiv@rem+3)^0,f,c
  7157  002324  90D8               	bcf	status,0,c
  7158  002326  3601               	rlcf	___fldiv@b^0,f,c
  7159  002328  3602               	rlcf	(___fldiv@b+1)^0,f,c
  7160  00232A  3603               	rlcf	(___fldiv@b+2)^0,f,c
  7161  00232C  3604               	rlcf	(___fldiv@b+3)^0,f,c
  7162  00232E  AE17               	btfss	(___fldiv@grs+3)^0,7,c
  7163  002330  EF9C  F011         	goto	u2891
  7164  002334  EF9E  F011         	goto	u2890
  7165  002338                     u2891:
  7166  002338  EF9F  F011         	goto	l700
  7167  00233C                     u2890:
  7168  00233C  8001               	bsf	___fldiv@b^0,0,c
  7169  00233E                     l700:
  7170  00233E  90D8               	bcf	status,0,c
  7171  002340  3614               	rlcf	___fldiv@grs^0,f,c
  7172  002342  3615               	rlcf	(___fldiv@grs+1)^0,f,c
  7173  002344  3616               	rlcf	(___fldiv@grs+2)^0,f,c
  7174  002346  3617               	rlcf	(___fldiv@grs+3)^0,f,c
  7175  002348                     l2915:
  7176  002348  5005               	movf	___fldiv@a^0,w,c
  7177  00234A  5C0D               	subwf	___fldiv@rem^0,w,c
  7178  00234C  5006               	movf	(___fldiv@a+1)^0,w,c
  7179  00234E  580E               	subwfb	(___fldiv@rem+1)^0,w,c
  7180  002350  5007               	movf	(___fldiv@a+2)^0,w,c
  7181  002352  580F               	subwfb	(___fldiv@rem+2)^0,w,c
  7182  002354  5008               	movf	(___fldiv@a+3)^0,w,c
  7183  002356  5810               	subwfb	(___fldiv@rem+3)^0,w,c
  7184  002358  A0D8               	btfss	status,0,c
  7185  00235A  EFB1  F011         	goto	u2901
  7186  00235E  EFB3  F011         	goto	u2900
  7187  002362                     u2901:
  7188  002362  EFBC  F011         	goto	l2921
  7189  002366                     u2900:
  7190  002366  8C17               	bsf	(___fldiv@grs+3)^0,6,c
  7191  002368  5005               	movf	___fldiv@a^0,w,c
  7192  00236A  5E0D               	subwf	___fldiv@rem^0,f,c
  7193  00236C  5006               	movf	(___fldiv@a+1)^0,w,c
  7194  00236E  5A0E               	subwfb	(___fldiv@rem+1)^0,f,c
  7195  002370  5007               	movf	(___fldiv@a+2)^0,w,c
  7196  002372  5A0F               	subwfb	(___fldiv@rem+2)^0,f,c
  7197  002374  5008               	movf	(___fldiv@a+3)^0,w,c
  7198  002376  5A10               	subwfb	(___fldiv@rem+3)^0,f,c
  7199  002378                     l2921:
  7200  002378  2A19               	incf	___fldiv@aexp^0,f,c
  7201  00237A                     l697:
  7202  00237A  0E19               	movlw	25
  7203  00237C  6419               	cpfsgt	___fldiv@aexp^0,c
  7204  00237E  EFC3  F011         	goto	u2911
  7205  002382  EFC5  F011         	goto	u2910
  7206  002386                     u2911:
  7207  002386  EF85  F011         	goto	l2907
  7208  00238A                     u2910:
  7209  00238A  500D               	movf	___fldiv@rem^0,w,c
  7210  00238C  100E               	iorwf	(___fldiv@rem+1)^0,w,c
  7211  00238E  100F               	iorwf	(___fldiv@rem+2)^0,w,c
  7212  002390  1010               	iorwf	(___fldiv@rem+3)^0,w,c
  7213  002392  B4D8               	btfsc	status,2,c
  7214  002394  EFCE  F011         	goto	u2921
  7215  002398  EFD0  F011         	goto	u2920
  7216  00239C                     u2921:
  7217  00239C  EFE8  F011         	goto	l2933
  7218  0023A0                     u2920:
  7219  0023A0  8014               	bsf	___fldiv@grs^0,0,c
  7220  0023A2  EFE8  F011         	goto	l2933
  7221  0023A6                     l2927:
  7222  0023A6  90D8               	bcf	status,0,c
  7223  0023A8  3601               	rlcf	___fldiv@b^0,f,c
  7224  0023AA  3602               	rlcf	(___fldiv@b+1)^0,f,c
  7225  0023AC  3603               	rlcf	(___fldiv@b+2)^0,f,c
  7226  0023AE  3604               	rlcf	(___fldiv@b+3)^0,f,c
  7227  0023B0  AE17               	btfss	(___fldiv@grs+3)^0,7,c
  7228  0023B2  EFDD  F011         	goto	u2931
  7229  0023B6  EFDF  F011         	goto	u2930
  7230  0023BA                     u2931:
  7231  0023BA  EFE0  F011         	goto	l706
  7232  0023BE                     u2930:
  7233  0023BE  8001               	bsf	___fldiv@b^0,0,c
  7234  0023C0                     l706:
  7235  0023C0  90D8               	bcf	status,0,c
  7236  0023C2  3614               	rlcf	___fldiv@grs^0,f,c
  7237  0023C4  3615               	rlcf	(___fldiv@grs+1)^0,f,c
  7238  0023C6  3616               	rlcf	(___fldiv@grs+2)^0,f,c
  7239  0023C8  3617               	rlcf	(___fldiv@grs+3)^0,f,c
  7240  0023CA  0612               	decf	___fldiv@new_exp^0,f,c
  7241  0023CC  A0D8               	btfss	status,0,c
  7242  0023CE  0613               	decf	(___fldiv@new_exp+1)^0,f,c
  7243  0023D0                     l2933:
  7244  0023D0  AE03               	btfss	(___fldiv@b+2)^0,7,c
  7245  0023D2  EFED  F011         	goto	u2941
  7246  0023D6  EFEF  F011         	goto	u2940
  7247  0023DA                     u2941:
  7248  0023DA  EFD3  F011         	goto	l2927
  7249  0023DE                     u2940:
  7250  0023DE  0E00               	movlw	0
  7251  0023E0  6E19               	movwf	___fldiv@aexp^0,c
  7252  0023E2  AE17               	btfss	(___fldiv@grs+3)^0,7,c
  7253  0023E4  EFF6  F011         	goto	u2951
  7254  0023E8  EFF8  F011         	goto	u2950
  7255  0023EC                     u2951:
  7256  0023EC  EF1C  F012         	goto	l708
  7257  0023F0                     u2950:
  7258  0023F0  0EFF               	movlw	255
  7259  0023F2  1414               	andwf	___fldiv@grs^0,w,c
  7260  0023F4  6E09               	movwf	??___fldiv^0,c
  7261  0023F6  0EFF               	movlw	255
  7262  0023F8  1415               	andwf	(___fldiv@grs+1)^0,w,c
  7263  0023FA  6E0A               	movwf	(??___fldiv+1)^0,c
  7264  0023FC  0EFF               	movlw	255
  7265  0023FE  1416               	andwf	(___fldiv@grs+2)^0,w,c
  7266  002400  6E0B               	movwf	(??___fldiv+2)^0,c
  7267  002402  0E7F               	movlw	127
  7268  002404  1417               	andwf	(___fldiv@grs+3)^0,w,c
  7269  002406  6E0C               	movwf	(??___fldiv+3)^0,c
  7270  002408  5009               	movf	??___fldiv^0,w,c
  7271  00240A  100A               	iorwf	(??___fldiv+1)^0,w,c
  7272  00240C  100B               	iorwf	(??___fldiv+2)^0,w,c
  7273  00240E  100C               	iorwf	(??___fldiv+3)^0,w,c
  7274  002410  B4D8               	btfsc	status,2,c
  7275  002412  EF0D  F012         	goto	u2961
  7276  002416  EF0F  F012         	goto	u2960
  7277  00241A                     u2961:
  7278  00241A  EF13  F012         	goto	l709
  7279  00241E                     u2960:
  7280  00241E                     l2941:
  7281  00241E  0E01               	movlw	1
  7282  002420  6E19               	movwf	___fldiv@aexp^0,c
  7283  002422  EF1C  F012         	goto	l708
  7284  002426                     l709:
  7285  002426  A001               	btfss	___fldiv@b^0,0,c
  7286  002428  EF18  F012         	goto	u2971
  7287  00242C  EF1A  F012         	goto	u2970
  7288  002430                     u2971:
  7289  002430  EF1C  F012         	goto	l708
  7290  002434                     u2970:
  7291  002434  EF0F  F012         	goto	l2941
  7292  002438                     l708:
  7293  002438  5019               	movf	___fldiv@aexp^0,w,c
  7294  00243A  B4D8               	btfsc	status,2,c
  7295  00243C  EF22  F012         	goto	u2981
  7296  002440  EF24  F012         	goto	u2980
  7297  002444                     u2981:
  7298  002444  EF48  F012         	goto	l2953
  7299  002448                     u2980:
  7300  002448  0E01               	movlw	1
  7301  00244A  2601               	addwf	___fldiv@b^0,f,c
  7302  00244C  0E00               	movlw	0
  7303  00244E  2202               	addwfc	(___fldiv@b+1)^0,f,c
  7304  002450  2203               	addwfc	(___fldiv@b+2)^0,f,c
  7305  002452  2204               	addwfc	(___fldiv@b+3)^0,f,c
  7306  002454  A004               	btfss	(___fldiv@b+3)^0,0,c
  7307  002456  EF2F  F012         	goto	u2991
  7308  00245A  EF31  F012         	goto	u2990
  7309  00245E                     u2991:
  7310  00245E  EF48  F012         	goto	l2953
  7311  002462                     u2990:
  7312  002462  C001  F009         	movff	___fldiv@b,??___fldiv
  7313  002466  C002  F00A         	movff	___fldiv@b+1,??___fldiv+1
  7314  00246A  C003  F00B         	movff	___fldiv@b+2,??___fldiv+2
  7315  00246E  C004  F00C         	movff	___fldiv@b+3,??___fldiv+3
  7316  002472  340C               	rlcf	(??___fldiv+3)^0,w,c
  7317  002474  320C               	rrcf	(??___fldiv+3)^0,f,c
  7318  002476  320B               	rrcf	(??___fldiv+2)^0,f,c
  7319  002478  320A               	rrcf	(??___fldiv+1)^0,f,c
  7320  00247A  3209               	rrcf	??___fldiv^0,f,c
  7321  00247C  C009  F001         	movff	??___fldiv,___fldiv@b
  7322  002480  C00A  F002         	movff	??___fldiv+1,___fldiv@b+1
  7323  002484  C00B  F003         	movff	??___fldiv+2,___fldiv@b+2
  7324  002488  C00C  F004         	movff	??___fldiv+3,___fldiv@b+3
  7325  00248C  4A12               	infsnz	___fldiv@new_exp^0,f,c
  7326  00248E  2A13               	incf	(___fldiv@new_exp+1)^0,f,c
  7327  002490                     l2953:
  7328  002490  BE13               	btfsc	(___fldiv@new_exp+1)^0,7,c
  7329  002492  EF53  F012         	goto	u3001
  7330  002496  5013               	movf	(___fldiv@new_exp+1)^0,w,c
  7331  002498  E108               	bnz	u3000
  7332  00249A  2812               	incf	___fldiv@new_exp^0,w,c
  7333  00249C  A0D8               	btfss	status,0,c
  7334  00249E  EF53  F012         	goto	u3001
  7335  0024A2  EF55  F012         	goto	u3000
  7336  0024A6                     u3001:
  7337  0024A6  EF60  F012         	goto	l2957
  7338  0024AA                     u3000:
  7339  0024AA  0E00               	movlw	0
  7340  0024AC  6E13               	movwf	(___fldiv@new_exp+1)^0,c
  7341  0024AE  6812               	setf	___fldiv@new_exp^0,c
  7342  0024B0  0E00               	movlw	0
  7343  0024B2  6E01               	movwf	___fldiv@b^0,c
  7344  0024B4  0E00               	movlw	0
  7345  0024B6  6E02               	movwf	(___fldiv@b+1)^0,c
  7346  0024B8  0E00               	movlw	0
  7347  0024BA  6E03               	movwf	(___fldiv@b+2)^0,c
  7348  0024BC  0E00               	movlw	0
  7349  0024BE  6E04               	movwf	(___fldiv@b+3)^0,c
  7350  0024C0                     l2957:
  7351  0024C0  BE13               	btfsc	(___fldiv@new_exp+1)^0,7,c
  7352  0024C2  EF6D  F012         	goto	u3010
  7353  0024C6  5013               	movf	(___fldiv@new_exp+1)^0,w,c
  7354  0024C8  E106               	bnz	u3011
  7355  0024CA  0412               	decf	___fldiv@new_exp^0,w,c
  7356  0024CC  B0D8               	btfsc	status,0,c
  7357  0024CE  EF6B  F012         	goto	u3011
  7358  0024D2  EF6D  F012         	goto	u3010
  7359  0024D6                     u3011:
  7360  0024D6  EF7B  F012         	goto	l2961
  7361  0024DA                     u3010:
  7362  0024DA  0E00               	movlw	0
  7363  0024DC  6E13               	movwf	(___fldiv@new_exp+1)^0,c
  7364  0024DE  0E00               	movlw	0
  7365  0024E0  6E12               	movwf	___fldiv@new_exp^0,c
  7366  0024E2  0E00               	movlw	0
  7367  0024E4  6E01               	movwf	___fldiv@b^0,c
  7368  0024E6  0E00               	movlw	0
  7369  0024E8  6E02               	movwf	(___fldiv@b+1)^0,c
  7370  0024EA  0E00               	movlw	0
  7371  0024EC  6E03               	movwf	(___fldiv@b+2)^0,c
  7372  0024EE  0E00               	movlw	0
  7373  0024F0  6E04               	movwf	(___fldiv@b+3)^0,c
  7374  0024F2  0E00               	movlw	0
  7375  0024F4  6E11               	movwf	___fldiv@sign^0,c
  7376  0024F6                     l2961:
  7377  0024F6  C012  F018         	movff	___fldiv@new_exp,___fldiv@bexp
  7378  0024FA  A018               	btfss	___fldiv@bexp^0,0,c
  7379  0024FC  EF82  F012         	goto	u3021
  7380  002500  EF84  F012         	goto	u3020
  7381  002504                     u3021:
  7382  002504  EF87  F012         	goto	l2967
  7383  002508                     u3020:
  7384  002508  8E03               	bsf	(___fldiv@b+2)^0,7,c
  7385  00250A  EF88  F012         	goto	l2969
  7386  00250E                     l2967:
  7387  00250E  9E03               	bcf	(___fldiv@b+2)^0,7,c
  7388  002510                     l2969:
  7389  002510  90D8               	bcf	status,0,c
  7390  002512  3018               	rrcf	___fldiv@bexp^0,w,c
  7391  002514  6E04               	movwf	(___fldiv@b+3)^0,c
  7392  002516  EF3E  F011         	goto	l2883
  7393  00251A                     l695:
  7394  00251A  0012               	return		;funcret
  7395  00251C                     __end_of___fldiv:
  7396                           	callstack 0
  7397                           
  7398 ;; *************** function ___awmod *****************
  7399 ;; Defined at:
  7400 ;;		line 7 in file "C:\Program Files\Microchip\xc8\v2.36\pic\sources\c99\common\awmod.c"
  7401 ;; Parameters:    Size  Location     Type
  7402 ;;  dividend        2    0[COMRAM] int 
  7403 ;;  divisor         2    2[COMRAM] int 
  7404 ;; Auto vars:     Size  Location     Type
  7405 ;;  sign            1    5[COMRAM] unsigned char 
  7406 ;;  counter         1    4[COMRAM] unsigned char 
  7407 ;; Return value:  Size  Location     Type
  7408 ;;                  2    0[COMRAM] int 
  7409 ;; Registers used:
  7410 ;;		wreg, status,2, status,0
  7411 ;; Tracked objects:
  7412 ;;		On entry : 0/0
  7413 ;;		On exit  : 0/0
  7414 ;;		Unchanged: 0/0
  7415 ;; Data sizes:     COMRAM   BANK0   BANK1   BANK2   BANK3   BANK4   BANK5   BANK6   BANK7
  7416 ;;      Params:         4       0       0       0       0       0       0       0       0
  7417 ;;      Locals:         2       0       0       0       0       0       0       0       0
  7418 ;;      Temps:          0       0       0       0       0       0       0       0       0
  7419 ;;      Totals:         6       0       0       0       0       0       0       0       0
  7420 ;;Total ram usage:        6 bytes
  7421 ;; Hardware stack levels used: 1
  7422 ;; This function calls:
  7423 ;;		Nothing
  7424 ;; This function is called by:
  7425 ;;		_efgtoa
  7426 ;; This function uses a non-reentrant model
  7427 ;;
  7428                           
  7429                           	psect	text27
  7430  0032D6                     __ptext27:
  7431                           	callstack 0
  7432  0032D6                     ___awmod:
  7433                           	callstack 25
  7434  0032D6  0E00               	movlw	0
  7435  0032D8  6E06               	movwf	___awmod@sign^0,c
  7436  0032DA  BE02               	btfsc	(___awmod@dividend+1)^0,7,c
  7437  0032DC  EF74  F019         	goto	u3280
  7438  0032E0  EF72  F019         	goto	u3281
  7439  0032E4                     u3281:
  7440  0032E4  EF7A  F019         	goto	l3165
  7441  0032E8                     u3280:
  7442  0032E8  6C01               	negf	___awmod@dividend^0,c
  7443  0032EA  1E02               	comf	(___awmod@dividend+1)^0,f,c
  7444  0032EC  B0D8               	btfsc	status,0,c
  7445  0032EE  2A02               	incf	(___awmod@dividend+1)^0,f,c
  7446  0032F0  0E01               	movlw	1
  7447  0032F2  6E06               	movwf	___awmod@sign^0,c
  7448  0032F4                     l3165:
  7449  0032F4  BE04               	btfsc	(___awmod@divisor+1)^0,7,c
  7450  0032F6  EF81  F019         	goto	u3290
  7451  0032FA  EF7F  F019         	goto	u3291
  7452  0032FE                     u3291:
  7453  0032FE  EF85  F019         	goto	l3169
  7454  003302                     u3290:
  7455  003302  6C03               	negf	___awmod@divisor^0,c
  7456  003304  1E04               	comf	(___awmod@divisor+1)^0,f,c
  7457  003306  B0D8               	btfsc	status,0,c
  7458  003308  2A04               	incf	(___awmod@divisor+1)^0,f,c
  7459  00330A                     l3169:
  7460  00330A  5003               	movf	___awmod@divisor^0,w,c
  7461  00330C  1004               	iorwf	(___awmod@divisor+1)^0,w,c
  7462  00330E  B4D8               	btfsc	status,2,c
  7463  003310  EF8C  F019         	goto	u3301
  7464  003314  EF8E  F019         	goto	u3300
  7465  003318                     u3301:
  7466  003318  EFB2  F019         	goto	l3185
  7467  00331C                     u3300:
  7468  00331C  0E01               	movlw	1
  7469  00331E  6E05               	movwf	___awmod@counter^0,c
  7470  003320  EF96  F019         	goto	l3175
  7471  003324                     l3173:
  7472  003324  90D8               	bcf	status,0,c
  7473  003326  3603               	rlcf	___awmod@divisor^0,f,c
  7474  003328  3604               	rlcf	(___awmod@divisor+1)^0,f,c
  7475  00332A  2A05               	incf	___awmod@counter^0,f,c
  7476  00332C                     l3175:
  7477  00332C  AE04               	btfss	(___awmod@divisor+1)^0,7,c
  7478  00332E  EF9B  F019         	goto	u3311
  7479  003332  EF9D  F019         	goto	u3310
  7480  003336                     u3311:
  7481  003336  EF92  F019         	goto	l3173
  7482  00333A                     u3310:
  7483  00333A                     l3177:
  7484  00333A  5003               	movf	___awmod@divisor^0,w,c
  7485  00333C  5C01               	subwf	___awmod@dividend^0,w,c
  7486  00333E  5004               	movf	(___awmod@divisor+1)^0,w,c
  7487  003340  5802               	subwfb	(___awmod@dividend+1)^0,w,c
  7488  003342  A0D8               	btfss	status,0,c
  7489  003344  EFA6  F019         	goto	u3321
  7490  003348  EFA8  F019         	goto	u3320
  7491  00334C                     u3321:
  7492  00334C  EFAC  F019         	goto	l3181
  7493  003350                     u3320:
  7494  003350  5003               	movf	___awmod@divisor^0,w,c
  7495  003352  5E01               	subwf	___awmod@dividend^0,f,c
  7496  003354  5004               	movf	(___awmod@divisor+1)^0,w,c
  7497  003356  5A02               	subwfb	(___awmod@dividend+1)^0,f,c
  7498  003358                     l3181:
  7499  003358  90D8               	bcf	status,0,c
  7500  00335A  3204               	rrcf	(___awmod@divisor+1)^0,f,c
  7501  00335C  3203               	rrcf	___awmod@divisor^0,f,c
  7502  00335E  2E05               	decfsz	___awmod@counter^0,f,c
  7503  003360  EF9D  F019         	goto	l3177
  7504  003364                     l3185:
  7505  003364  5006               	movf	___awmod@sign^0,w,c
  7506  003366  B4D8               	btfsc	status,2,c
  7507  003368  EFB8  F019         	goto	u3331
  7508  00336C  EFBA  F019         	goto	u3330
  7509  003370                     u3331:
  7510  003370  EFBE  F019         	goto	l3189
  7511  003374                     u3330:
  7512  003374  6C01               	negf	___awmod@dividend^0,c
  7513  003376  1E02               	comf	(___awmod@dividend+1)^0,f,c
  7514  003378  B0D8               	btfsc	status,0,c
  7515  00337A  2A02               	incf	(___awmod@dividend+1)^0,f,c
  7516  00337C                     l3189:
  7517  00337C  C001  F001         	movff	___awmod@dividend,?___awmod
  7518  003380  C002  F002         	movff	___awmod@dividend+1,?___awmod+1
  7519  003384  0012               	return		;funcret
  7520  003386                     __end_of___awmod:
  7521                           	callstack 0
  7522                           
  7523 ;; *************** function ___awdiv *****************
  7524 ;; Defined at:
  7525 ;;		line 7 in file "C:\Program Files\Microchip\xc8\v2.36\pic\sources\c99\common\awdiv.c"
  7526 ;; Parameters:    Size  Location     Type
  7527 ;;  dividend        2    0[COMRAM] int 
  7528 ;;  divisor         2    2[COMRAM] int 
  7529 ;; Auto vars:     Size  Location     Type
  7530 ;;  quotient        2    6[COMRAM] int 
  7531 ;;  sign            1    5[COMRAM] unsigned char 
  7532 ;;  counter         1    4[COMRAM] unsigned char 
  7533 ;; Return value:  Size  Location     Type
  7534 ;;                  2    0[COMRAM] int 
  7535 ;; Registers used:
  7536 ;;		wreg, status,2, status,0
  7537 ;; Tracked objects:
  7538 ;;		On entry : 0/0
  7539 ;;		On exit  : 0/0
  7540 ;;		Unchanged: 0/0
  7541 ;; Data sizes:     COMRAM   BANK0   BANK1   BANK2   BANK3   BANK4   BANK5   BANK6   BANK7
  7542 ;;      Params:         4       0       0       0       0       0       0       0       0
  7543 ;;      Locals:         4       0       0       0       0       0       0       0       0
  7544 ;;      Temps:          0       0       0       0       0       0       0       0       0
  7545 ;;      Totals:         8       0       0       0       0       0       0       0       0
  7546 ;;Total ram usage:        8 bytes
  7547 ;; Hardware stack levels used: 1
  7548 ;; This function calls:
  7549 ;;		Nothing
  7550 ;; This function is called by:
  7551 ;;		_efgtoa
  7552 ;; This function uses a non-reentrant model
  7553 ;;
  7554                           
  7555                           	psect	text28
  7556  003212                     __ptext28:
  7557                           	callstack 0
  7558  003212                     ___awdiv:
  7559                           	callstack 25
  7560  003212  0E00               	movlw	0
  7561  003214  6E06               	movwf	___awdiv@sign^0,c
  7562  003216  BE04               	btfsc	(___awdiv@divisor+1)^0,7,c
  7563  003218  EF12  F019         	goto	u3220
  7564  00321C  EF10  F019         	goto	u3221
  7565  003220                     u3221:
  7566  003220  EF18  F019         	goto	l3121
  7567  003224                     u3220:
  7568  003224  6C03               	negf	___awdiv@divisor^0,c
  7569  003226  1E04               	comf	(___awdiv@divisor+1)^0,f,c
  7570  003228  B0D8               	btfsc	status,0,c
  7571  00322A  2A04               	incf	(___awdiv@divisor+1)^0,f,c
  7572  00322C  0E01               	movlw	1
  7573  00322E  6E06               	movwf	___awdiv@sign^0,c
  7574  003230                     l3121:
  7575  003230  BE02               	btfsc	(___awdiv@dividend+1)^0,7,c
  7576  003232  EF1F  F019         	goto	u3230
  7577  003236  EF1D  F019         	goto	u3231
  7578  00323A                     u3231:
  7579  00323A  EF25  F019         	goto	l3127
  7580  00323E                     u3230:
  7581  00323E  6C01               	negf	___awdiv@dividend^0,c
  7582  003240  1E02               	comf	(___awdiv@dividend+1)^0,f,c
  7583  003242  B0D8               	btfsc	status,0,c
  7584  003244  2A02               	incf	(___awdiv@dividend+1)^0,f,c
  7585  003246  0E01               	movlw	1
  7586  003248  1A06               	xorwf	___awdiv@sign^0,f,c
  7587  00324A                     l3127:
  7588  00324A  0E00               	movlw	0
  7589  00324C  6E08               	movwf	(___awdiv@quotient+1)^0,c
  7590  00324E  0E00               	movlw	0
  7591  003250  6E07               	movwf	___awdiv@quotient^0,c
  7592  003252  5003               	movf	___awdiv@divisor^0,w,c
  7593  003254  1004               	iorwf	(___awdiv@divisor+1)^0,w,c
  7594  003256  B4D8               	btfsc	status,2,c
  7595  003258  EF30  F019         	goto	u3241
  7596  00325C  EF32  F019         	goto	u3240
  7597  003260                     u3241:
  7598  003260  EF5A  F019         	goto	l3149
  7599  003264                     u3240:
  7600  003264  0E01               	movlw	1
  7601  003266  6E05               	movwf	___awdiv@counter^0,c
  7602  003268  EF3A  F019         	goto	l3135
  7603  00326C                     l3133:
  7604  00326C  90D8               	bcf	status,0,c
  7605  00326E  3603               	rlcf	___awdiv@divisor^0,f,c
  7606  003270  3604               	rlcf	(___awdiv@divisor+1)^0,f,c
  7607  003272  2A05               	incf	___awdiv@counter^0,f,c
  7608  003274                     l3135:
  7609  003274  AE04               	btfss	(___awdiv@divisor+1)^0,7,c
  7610  003276  EF3F  F019         	goto	u3251
  7611  00327A  EF41  F019         	goto	u3250
  7612  00327E                     u3251:
  7613  00327E  EF36  F019         	goto	l3133
  7614  003282                     u3250:
  7615  003282                     l3137:
  7616  003282  90D8               	bcf	status,0,c
  7617  003284  3607               	rlcf	___awdiv@quotient^0,f,c
  7618  003286  3608               	rlcf	(___awdiv@quotient+1)^0,f,c
  7619  003288  5003               	movf	___awdiv@divisor^0,w,c
  7620  00328A  5C01               	subwf	___awdiv@dividend^0,w,c
  7621  00328C  5004               	movf	(___awdiv@divisor+1)^0,w,c
  7622  00328E  5802               	subwfb	(___awdiv@dividend+1)^0,w,c
  7623  003290  A0D8               	btfss	status,0,c
  7624  003292  EF4D  F019         	goto	u3261
  7625  003296  EF4F  F019         	goto	u3260
  7626  00329A                     u3261:
  7627  00329A  EF54  F019         	goto	l3145
  7628  00329E                     u3260:
  7629  00329E  5003               	movf	___awdiv@divisor^0,w,c
  7630  0032A0  5E01               	subwf	___awdiv@dividend^0,f,c
  7631  0032A2  5004               	movf	(___awdiv@divisor+1)^0,w,c
  7632  0032A4  5A02               	subwfb	(___awdiv@dividend+1)^0,f,c
  7633  0032A6  8007               	bsf	___awdiv@quotient^0,0,c
  7634  0032A8                     l3145:
  7635  0032A8  90D8               	bcf	status,0,c
  7636  0032AA  3204               	rrcf	(___awdiv@divisor+1)^0,f,c
  7637  0032AC  3203               	rrcf	___awdiv@divisor^0,f,c
  7638  0032AE  2E05               	decfsz	___awdiv@counter^0,f,c
  7639  0032B0  EF41  F019         	goto	l3137
  7640  0032B4                     l3149:
  7641  0032B4  5006               	movf	___awdiv@sign^0,w,c
  7642  0032B6  B4D8               	btfsc	status,2,c
  7643  0032B8  EF60  F019         	goto	u3271
  7644  0032BC  EF62  F019         	goto	u3270
  7645  0032C0                     u3271:
  7646  0032C0  EF66  F019         	goto	l3153
  7647  0032C4                     u3270:
  7648  0032C4  6C07               	negf	___awdiv@quotient^0,c
  7649  0032C6  1E08               	comf	(___awdiv@quotient+1)^0,f,c
  7650  0032C8  B0D8               	btfsc	status,0,c
  7651  0032CA  2A08               	incf	(___awdiv@quotient+1)^0,f,c
  7652  0032CC                     l3153:
  7653  0032CC  C007  F001         	movff	___awdiv@quotient,?___awdiv
  7654  0032D0  C008  F002         	movff	___awdiv@quotient+1,?___awdiv+1
  7655  0032D4  0012               	return		;funcret
  7656  0032D6                     __end_of___awdiv:
  7657                           	callstack 0
  7658                           
  7659 ;; *************** function _atoi *****************
  7660 ;; Defined at:
  7661 ;;		line 4 in file "C:\Program Files\Microchip\xc8\v2.36\pic\sources\c99\common\atoi.c"
  7662 ;; Parameters:    Size  Location     Type
  7663 ;;  s               2    7[COMRAM] PTR const unsigned char 
  7664 ;;		 -> STR_5(5), 
  7665 ;; Auto vars:     Size  Location     Type
  7666 ;;  n               2   15[COMRAM] int 
  7667 ;;  neg             2   13[COMRAM] int 
  7668 ;; Return value:  Size  Location     Type
  7669 ;;                  2    7[COMRAM] int 
  7670 ;; Registers used:
  7671 ;;		wreg, status,2, status,0, tblptrl, tblptrh, tblptru, prodl, prodh, cstack
  7672 ;; Tracked objects:
  7673 ;;		On entry : 0/0
  7674 ;;		On exit  : 0/0
  7675 ;;		Unchanged: 0/0
  7676 ;; Data sizes:     COMRAM   BANK0   BANK1   BANK2   BANK3   BANK4   BANK5   BANK6   BANK7
  7677 ;;      Params:         2       0       0       0       0       0       0       0       0
  7678 ;;      Locals:         4       0       0       0       0       0       0       0       0
  7679 ;;      Temps:          4       0       0       0       0       0       0       0       0
  7680 ;;      Totals:        10       0       0       0       0       0       0       0       0
  7681 ;;Total ram usage:       10 bytes
  7682 ;; Hardware stack levels used: 1
  7683 ;; Hardware stack levels required when called: 1
  7684 ;; This function calls:
  7685 ;;		___wmul
  7686 ;;		_isdigit
  7687 ;;		_isspace
  7688 ;; This function is called by:
  7689 ;;		_vfpfcnvrt
  7690 ;; This function uses a non-reentrant model
  7691 ;;
  7692                           
  7693                           	psect	text29
  7694  002A5A                     __ptext29:
  7695                           	callstack 0
  7696  002A5A                     _atoi:
  7697                           	callstack 25
  7698  002A5A  0E00               	movlw	0
  7699  002A5C  6E11               	movwf	(atoi@n+1)^0,c
  7700  002A5E  0E00               	movlw	0
  7701  002A60  6E10               	movwf	atoi@n^0,c
  7702  002A62  0E00               	movlw	0
  7703  002A64  6E0F               	movwf	(atoi@neg+1)^0,c
  7704  002A66  0E00               	movlw	0
  7705  002A68  6E0E               	movwf	atoi@neg^0,c
  7706  002A6A  EF39  F015         	goto	l3697
  7707  002A6E                     l3693:
  7708  002A6E  4A08               	infsnz	atoi@s^0,f,c
  7709  002A70  2A09               	incf	(atoi@s+1)^0,f,c
  7710  002A72                     l3697:
  7711  002A72  C008  FFF6         	movff	atoi@s,tblptrl
  7712  002A76  C009  FFF7         	movff	atoi@s+1,tblptrh
  7713  002A7A                     	if	0	;tblptru may be non-zero
  7714  002A7A                     	endif
  7715  002A7A                     	if	0	;tblptru may be non-zero
  7716  002A7A                     	endif
  7717  002A7A  0008               	tblrd		*
  7718  002A7C  50F5               	movf	tablat,w,c
  7719  002A7E  0A20               	xorlw	32
  7720  002A80  B4D8               	btfsc	status,2,c
  7721  002A82  EF45  F015         	goto	u4261
  7722  002A86  EF47  F015         	goto	u4260
  7723  002A8A                     u4261:
  7724  002A8A  EF37  F015         	goto	l3693
  7725  002A8E                     u4260:
  7726  002A8E  0EF7               	movlw	247
  7727  002A90  6E0A               	movwf	??_atoi^0,c
  7728  002A92  0EFF               	movlw	255
  7729  002A94  6E0B               	movwf	(??_atoi+1)^0,c
  7730  002A96  C008  FFF6         	movff	atoi@s,tblptrl
  7731  002A9A  C009  FFF7         	movff	atoi@s+1,tblptrh
  7732  002A9E                     	if	0	;tblptru may be non-zero
  7733  002A9E                     	endif
  7734  002A9E                     	if	0	;tblptru may be non-zero
  7735  002A9E                     	endif
  7736  002A9E  0008               	tblrd		*
  7737  002AA0  50F5               	movf	tablat,w,c
  7738  002AA2  6E0C               	movwf	(??_atoi+2)^0,c
  7739  002AA4  6A0D               	clrf	(??_atoi+3)^0,c
  7740  002AA6  500A               	movf	??_atoi^0,w,c
  7741  002AA8  260C               	addwf	(??_atoi+2)^0,f,c
  7742  002AAA  500B               	movf	(??_atoi+1)^0,w,c
  7743  002AAC  220D               	addwfc	(??_atoi+3)^0,f,c
  7744  002AAE  500D               	movf	(??_atoi+3)^0,w,c
  7745  002AB0  E109               	bnz	u4270
  7746  002AB2  0E05               	movlw	5
  7747  002AB4  5C0C               	subwf	(??_atoi+2)^0,w,c
  7748  002AB6  A0D8               	btfss	status,0,c
  7749  002AB8  EF60  F015         	goto	u4271
  7750  002ABC  EF62  F015         	goto	u4270
  7751  002AC0                     u4271:
  7752  002AC0  EF37  F015         	goto	l3693
  7753  002AC4                     u4270:
  7754  002AC4  EF6C  F015         	goto	l3705
  7755  002AC8                     l3701:
  7756  002AC8  0E00               	movlw	0
  7757  002ACA  6E0F               	movwf	(atoi@neg+1)^0,c
  7758  002ACC  0E01               	movlw	1
  7759  002ACE  6E0E               	movwf	atoi@neg^0,c
  7760  002AD0                     l3703:
  7761  002AD0  4A08               	infsnz	atoi@s^0,f,c
  7762  002AD2  2A09               	incf	(atoi@s+1)^0,f,c
  7763  002AD4  EFA1  F015         	goto	l3713
  7764  002AD8                     l3705:
  7765  002AD8  C008  FFF6         	movff	atoi@s,tblptrl
  7766  002ADC  C009  FFF7         	movff	atoi@s+1,tblptrh
  7767  002AE0                     	if	0	;tblptru may be non-zero
  7768  002AE0                     	endif
  7769  002AE0                     	if	0	;tblptru may be non-zero
  7770  002AE0                     	endif
  7771  002AE0  0008               	tblrd		*
  7772  002AE2  50F5               	movf	tablat,w,c
  7773  002AE4  6E0A               	movwf	??_atoi^0,c
  7774  002AE6  6A0B               	clrf	(??_atoi+1)^0,c
  7775                           
  7776                           ; Switch on 2 bytes has been partitioned into a top level switch of size 1, and 1 sub-sw
      +                          itches
  7777                           ; Switch size 1, requested type "simple"
  7778                           ; Number of cases is 1, Range of values is 0 to 0
  7779                           ; switch strategies available:
  7780                           ; Name         Instructions Cycles
  7781                           ; simple_byte            4     3 (average)
  7782                           ;	Chosen strategy is simple_byte
  7783  002AE8  500B               	movf	(??_atoi+1)^0,w,c
  7784  002AEA  0A00               	xorlw	0	; case 0
  7785  002AEC  B4D8               	btfsc	status,2,c
  7786  002AEE  EF7B  F015         	goto	l4111
  7787  002AF2  EFA1  F015         	goto	l3713
  7788  002AF6                     l4111:
  7789                           
  7790                           ; Switch size 1, requested type "simple"
  7791                           ; Number of cases is 2, Range of values is 43 to 45
  7792                           ; switch strategies available:
  7793                           ; Name         Instructions Cycles
  7794                           ; simple_byte            7     4 (average)
  7795                           ;	Chosen strategy is simple_byte
  7796  002AF6  500A               	movf	??_atoi^0,w,c
  7797  002AF8  0A2B               	xorlw	43	; case 43
  7798  002AFA  B4D8               	btfsc	status,2,c
  7799  002AFC  EF68  F015         	goto	l3703
  7800  002B00  0A06               	xorlw	6	; case 45
  7801  002B02  B4D8               	btfsc	status,2,c
  7802  002B04  EF64  F015         	goto	l3701
  7803  002B08  EFA1  F015         	goto	l3713
  7804  002B0C                     l3707:
  7805  002B0C  C010  F001         	movff	atoi@n,___wmul@multiplier
  7806  002B10  C011  F002         	movff	atoi@n+1,___wmul@multiplier+1
  7807  002B14  0E00               	movlw	0
  7808  002B16  6E04               	movwf	(___wmul@multiplicand+1)^0,c
  7809  002B18  0E0A               	movlw	10
  7810  002B1A  6E03               	movwf	___wmul@multiplicand^0,c
  7811  002B1C  ECFF  F01C         	call	___wmul	;wreg free
  7812  002B20  C008  FFF6         	movff	atoi@s,tblptrl
  7813  002B24  C009  FFF7         	movff	atoi@s+1,tblptrh
  7814  002B28                     	if	0	;tblptru may be non-zero
  7815  002B28                     	endif
  7816  002B28                     	if	0	;tblptru may be non-zero
  7817  002B28                     	endif
  7818  002B28  0008               	tblrd		*
  7819  002B2A  50F5               	movf	tablat,w,c
  7820  002B2C  5E01               	subwf	?___wmul^0,f,c
  7821  002B2E  0E00               	movlw	0
  7822  002B30  5A02               	subwfb	(?___wmul+1)^0,f,c
  7823  002B32  0E30               	movlw	48
  7824  002B34  2401               	addwf	?___wmul^0,w,c
  7825  002B36  6E10               	movwf	atoi@n^0,c
  7826  002B38  0E00               	movlw	0
  7827  002B3A  2002               	addwfc	(?___wmul+1)^0,w,c
  7828  002B3C  6E11               	movwf	(atoi@n+1)^0,c
  7829  002B3E  EF68  F015         	goto	l3703
  7830  002B42                     l3713:
  7831  002B42  0ED0               	movlw	208
  7832  002B44  6E0A               	movwf	??_atoi^0,c
  7833  002B46  0EFF               	movlw	255
  7834  002B48  6E0B               	movwf	(??_atoi+1)^0,c
  7835  002B4A  C008  FFF6         	movff	atoi@s,tblptrl
  7836  002B4E  C009  FFF7         	movff	atoi@s+1,tblptrh
  7837  002B52                     	if	0	;tblptru may be non-zero
  7838  002B52                     	endif
  7839  002B52                     	if	0	;tblptru may be non-zero
  7840  002B52                     	endif
  7841  002B52  0008               	tblrd		*
  7842  002B54  50F5               	movf	tablat,w,c
  7843  002B56  6E0C               	movwf	(??_atoi+2)^0,c
  7844  002B58  6A0D               	clrf	(??_atoi+3)^0,c
  7845  002B5A  500A               	movf	??_atoi^0,w,c
  7846  002B5C  260C               	addwf	(??_atoi+2)^0,f,c
  7847  002B5E  500B               	movf	(??_atoi+1)^0,w,c
  7848  002B60  220D               	addwfc	(??_atoi+3)^0,f,c
  7849  002B62  500D               	movf	(??_atoi+3)^0,w,c
  7850  002B64  E109               	bnz	u4280
  7851  002B66  0E0A               	movlw	10
  7852  002B68  5C0C               	subwf	(??_atoi+2)^0,w,c
  7853  002B6A  A0D8               	btfss	status,0,c
  7854  002B6C  EFBA  F015         	goto	u4281
  7855  002B70  EFBC  F015         	goto	u4280
  7856  002B74                     u4281:
  7857  002B74  EF86  F015         	goto	l3707
  7858  002B78                     u4280:
  7859  002B78  500E               	movf	atoi@neg^0,w,c
  7860  002B7A  100F               	iorwf	(atoi@neg+1)^0,w,c
  7861  002B7C  A4D8               	btfss	status,2,c
  7862  002B7E  EFC3  F015         	goto	u4291
  7863  002B82  EFC5  F015         	goto	u4290
  7864  002B86                     u4291:
  7865  002B86  EFD3  F015         	goto	l984
  7866  002B8A                     u4290:
  7867  002B8A  C010  F00A         	movff	atoi@n,??_atoi
  7868  002B8E  C011  F00B         	movff	atoi@n+1,??_atoi+1
  7869  002B92  1E0A               	comf	??_atoi^0,f,c
  7870  002B94  1E0B               	comf	(??_atoi+1)^0,f,c
  7871  002B96  4A0A               	infsnz	??_atoi^0,f,c
  7872  002B98  2A0B               	incf	(??_atoi+1)^0,f,c
  7873  002B9A  C00A  F008         	movff	??_atoi,?_atoi
  7874  002B9E  C00B  F009         	movff	??_atoi+1,?_atoi+1
  7875  002BA2  EFD7  F015         	goto	l987
  7876  002BA6                     l984:
  7877  002BA6  C010  F008         	movff	atoi@n,?_atoi
  7878  002BAA  C011  F009         	movff	atoi@n+1,?_atoi+1
  7879  002BAE                     l987:
  7880  002BAE  0012               	return		;funcret
  7881  002BB0                     __end_of_atoi:
  7882                           	callstack 0
  7883                           
  7884 ;; *************** function _isspace *****************
  7885 ;; Defined at:
  7886 ;;		line 5 in file "C:\Program Files\Microchip\xc8\v2.36\pic\sources\c99\common\isspace.c"
  7887 ;; Parameters:    Size  Location     Type
  7888 ;;  c               2    0[COMRAM] int 
  7889 ;; Auto vars:     Size  Location     Type
  7890 ;;		None
  7891 ;; Return value:  Size  Location     Type
  7892 ;;                  2    0[COMRAM] int 
  7893 ;; Registers used:
  7894 ;;		wreg, status,2, status,0
  7895 ;; Tracked objects:
  7896 ;;		On entry : 0/0
  7897 ;;		On exit  : 0/0
  7898 ;;		Unchanged: 0/0
  7899 ;; Data sizes:     COMRAM   BANK0   BANK1   BANK2   BANK3   BANK4   BANK5   BANK6   BANK7
  7900 ;;      Params:         2       0       0       0       0       0       0       0       0
  7901 ;;      Locals:         1       0       0       0       0       0       0       0       0
  7902 ;;      Temps:          4       0       0       0       0       0       0       0       0
  7903 ;;      Totals:         7       0       0       0       0       0       0       0       0
  7904 ;;Total ram usage:        7 bytes
  7905 ;; Hardware stack levels used: 1
  7906 ;; This function calls:
  7907 ;;		Nothing
  7908 ;; This function is called by:
  7909 ;;		_atoi
  7910 ;; This function uses a non-reentrant model
  7911 ;;
  7912                           
  7913                           	psect	text30
  7914  0036F6                     __ptext30:
  7915                           	callstack 0
  7916  0036F6                     _isspace:
  7917                           	callstack 25
  7918  0036F6  0E01               	movlw	1
  7919  0036F8  6E07               	movwf	_isspace$1137^0,c
  7920  0036FA  0E20               	movlw	32
  7921  0036FC  1801               	xorwf	isspace@c^0,w,c
  7922  0036FE  1002               	iorwf	(isspace@c+1)^0,w,c
  7923  003700  B4D8               	btfsc	status,2,c
  7924  003702  EF85  F01B         	goto	u3761
  7925  003706  EF87  F01B         	goto	u3760
  7926  00370A                     u3761:
  7927  00370A  EFA0  F01B         	goto	l3381
  7928  00370E                     u3760:
  7929  00370E  0EF7               	movlw	247
  7930  003710  6E03               	movwf	??_isspace^0,c
  7931  003712  0EFF               	movlw	255
  7932  003714  6E04               	movwf	(??_isspace+1)^0,c
  7933  003716  C001  F005         	movff	isspace@c,??_isspace+2
  7934  00371A  C002  F006         	movff	isspace@c+1,??_isspace+3
  7935  00371E  5003               	movf	??_isspace^0,w,c
  7936  003720  2605               	addwf	(??_isspace+2)^0,f,c
  7937  003722  5004               	movf	(??_isspace+1)^0,w,c
  7938  003724  2206               	addwfc	(??_isspace+3)^0,f,c
  7939  003726  5006               	movf	(??_isspace+3)^0,w,c
  7940  003728  E109               	bnz	u3770
  7941  00372A  0E05               	movlw	5
  7942  00372C  5C05               	subwf	(??_isspace+2)^0,w,c
  7943  00372E  A0D8               	btfss	status,0,c
  7944  003730  EF9C  F01B         	goto	u3771
  7945  003734  EF9E  F01B         	goto	u3770
  7946  003738                     u3771:
  7947  003738  EFA0  F01B         	goto	l3381
  7948  00373C                     u3770:
  7949  00373C  0E00               	movlw	0
  7950  00373E  6E07               	movwf	_isspace$1137^0,c
  7951  003740                     l3381:
  7952  003740  C007  F001         	movff	_isspace$1137,?_isspace
  7953  003744  6A02               	clrf	(?_isspace+1)^0,c
  7954  003746  0012               	return		;funcret
  7955  003748                     __end_of_isspace:
  7956                           	callstack 0
  7957                           
  7958 ;; *************** function _isdigit *****************
  7959 ;; Defined at:
  7960 ;;		line 5 in file "C:\Program Files\Microchip\xc8\v2.36\pic\sources\c99\common\isdigit.c"
  7961 ;; Parameters:    Size  Location     Type
  7962 ;;  c               2    0[COMRAM] int 
  7963 ;; Auto vars:     Size  Location     Type
  7964 ;;		None
  7965 ;; Return value:  Size  Location     Type
  7966 ;;                  2    0[COMRAM] int 
  7967 ;; Registers used:
  7968 ;;		wreg, status,2, status,0
  7969 ;; Tracked objects:
  7970 ;;		On entry : 0/0
  7971 ;;		On exit  : 0/0
  7972 ;;		Unchanged: 0/0
  7973 ;; Data sizes:     COMRAM   BANK0   BANK1   BANK2   BANK3   BANK4   BANK5   BANK6   BANK7
  7974 ;;      Params:         2       0       0       0       0       0       0       0       0
  7975 ;;      Locals:         0       0       0       0       0       0       0       0       0
  7976 ;;      Temps:          4       0       0       0       0       0       0       0       0
  7977 ;;      Totals:         6       0       0       0       0       0       0       0       0
  7978 ;;Total ram usage:        6 bytes
  7979 ;; Hardware stack levels used: 1
  7980 ;; This function calls:
  7981 ;;		Nothing
  7982 ;; This function is called by:
  7983 ;;		_vfpfcnvrt
  7984 ;;		_atoi
  7985 ;; This function uses a non-reentrant model
  7986 ;;
  7987                           
  7988                           	psect	text31
  7989  003908                     __ptext31:
  7990                           	callstack 0
  7991  003908                     _isdigit:
  7992                           	callstack 26
  7993  003908  0ED0               	movlw	208
  7994  00390A  6E03               	movwf	??_isdigit^0,c
  7995  00390C  0EFF               	movlw	255
  7996  00390E  6E04               	movwf	(??_isdigit+1)^0,c
  7997  003910  C001  F005         	movff	isdigit@c,??_isdigit+2
  7998  003914  C002  F006         	movff	isdigit@c+1,??_isdigit+3
  7999  003918  5003               	movf	??_isdigit^0,w,c
  8000  00391A  2605               	addwf	(??_isdigit+2)^0,f,c
  8001  00391C  5004               	movf	(??_isdigit+1)^0,w,c
  8002  00391E  2206               	addwfc	(??_isdigit+3)^0,f,c
  8003  003920  5006               	movf	(??_isdigit+3)^0,w,c
  8004  003922  E10A               	bnz	u3740
  8005  003924  0E0A               	movlw	10
  8006  003926  5C05               	subwf	(??_isdigit+2)^0,w,c
  8007  003928  A0D8               	btfss	status,0,c
  8008  00392A  EF99  F01C         	goto	u3741
  8009  00392E  EF9C  F01C         	goto	u3740
  8010  003932                     u3741:
  8011  003932  0E01               	movlw	1
  8012  003934  EF9D  F01C         	goto	u3750
  8013  003938                     u3740:
  8014  003938  0E00               	movlw	0
  8015  00393A                     u3750:
  8016  00393A  6E01               	movwf	?_isdigit^0,c
  8017  00393C  6A02               	clrf	(?_isdigit+1)^0,c
  8018  00393E  0012               	return		;funcret
  8019  003940                     __end_of_isdigit:
  8020                           	callstack 0
  8021                           
  8022 ;; *************** function ___wmul *****************
  8023 ;; Defined at:
  8024 ;;		line 15 in file "C:\Program Files\Microchip\xc8\v2.36\pic\sources\c99\common\Umul16.c"
  8025 ;; Parameters:    Size  Location     Type
  8026 ;;  multiplier      2    0[COMRAM] unsigned int 
  8027 ;;  multiplicand    2    2[COMRAM] unsigned int 
  8028 ;; Auto vars:     Size  Location     Type
  8029 ;;  product         2    4[COMRAM] unsigned int 
  8030 ;; Return value:  Size  Location     Type
  8031 ;;                  2    0[COMRAM] unsigned int 
  8032 ;; Registers used:
  8033 ;;		wreg, status,2, status,0, prodl, prodh
  8034 ;; Tracked objects:
  8035 ;;		On entry : 0/0
  8036 ;;		On exit  : 0/0
  8037 ;;		Unchanged: 0/0
  8038 ;; Data sizes:     COMRAM   BANK0   BANK1   BANK2   BANK3   BANK4   BANK5   BANK6   BANK7
  8039 ;;      Params:         4       0       0       0       0       0       0       0       0
  8040 ;;      Locals:         2       0       0       0       0       0       0       0       0
  8041 ;;      Temps:          0       0       0       0       0       0       0       0       0
  8042 ;;      Totals:         6       0       0       0       0       0       0       0       0
  8043 ;;Total ram usage:        6 bytes
  8044 ;; Hardware stack levels used: 1
  8045 ;; This function calls:
  8046 ;;		Nothing
  8047 ;; This function is called by:
  8048 ;;		_atoi
  8049 ;; This function uses a non-reentrant model
  8050 ;;
  8051                           
  8052                           	psect	text32
  8053  0039FE                     __ptext32:
  8054                           	callstack 0
  8055  0039FE                     ___wmul:
  8056                           	callstack 25
  8057  0039FE  5001               	movf	___wmul@multiplier^0,w,c
  8058  003A00  0203               	mulwf	___wmul@multiplicand^0,c
  8059  003A02  CFF3 F005          	movff	prodl,___wmul@product
  8060  003A06  CFF4 F006          	movff	prodh,___wmul@product+1
  8061  003A0A  5001               	movf	___wmul@multiplier^0,w,c
  8062  003A0C  0204               	mulwf	(___wmul@multiplicand+1)^0,c
  8063  003A0E  50F3               	movf	243,w,c
  8064  003A10  2606               	addwf	(___wmul@product+1)^0,f,c
  8065  003A12  5002               	movf	(___wmul@multiplier+1)^0,w,c
  8066  003A14  0203               	mulwf	___wmul@multiplicand^0,c
  8067  003A16  50F3               	movf	243,w,c
  8068  003A18  2606               	addwf	(___wmul@product+1)^0,f,c
  8069  003A1A  C005  F001         	movff	___wmul@product,?___wmul
  8070  003A1E  C006  F002         	movff	___wmul@product+1,?___wmul+1
  8071  003A22  0012               	return		;funcret
  8072  003A24                     __end_of___wmul:
  8073                           	callstack 0
  8074                           
  8075 ;; *************** function _printDisplayLCD *****************
  8076 ;; Defined at:
  8077 ;;		line 11 in file "./rotina.h"
  8078 ;; Parameters:    Size  Location     Type
  8079 ;;  line            2    7[COMRAM] int 
  8080 ;;  col             2    9[COMRAM] int 
  8081 ;;  text            2   11[COMRAM] PTR unsigned char 
  8082 ;;		 -> STR_7(10), STR_6(12), potentiometer_temperature@temperatura_texto(10), STR_4(8), 
  8083 ;;		 -> STR_3(13), STR_2(13), STR_1(11), 
  8084 ;; Auto vars:     Size  Location     Type
  8085 ;;		None
  8086 ;; Return value:  Size  Location     Type
  8087 ;;                  1    wreg      void 
  8088 ;; Registers used:
  8089 ;;		wreg, fsr1l, fsr1h, status,2, status,0, tblptrl, tblptrh, tblptru, cstack
  8090 ;; Tracked objects:
  8091 ;;		On entry : 0/0
  8092 ;;		On exit  : 0/0
  8093 ;;		Unchanged: 0/0
  8094 ;; Data sizes:     COMRAM   BANK0   BANK1   BANK2   BANK3   BANK4   BANK5   BANK6   BANK7
  8095 ;;      Params:         6       0       0       0       0       0       0       0       0
  8096 ;;      Locals:         0       0       0       0       0       0       0       0       0
  8097 ;;      Temps:          2       0       0       0       0       0       0       0       0
  8098 ;;      Totals:         8       0       0       0       0       0       0       0       0
  8099 ;;Total ram usage:        8 bytes
  8100 ;; Hardware stack levels used: 1
  8101 ;; Hardware stack levels required when called: 2
  8102 ;; This function calls:
  8103 ;;		_Escreve_LCD
  8104 ;;		_Posiciona_LCD
  8105 ;; This function is called by:
  8106 ;;		_turnon_coolerandheater
  8107 ;;		_potentiometer_temperature
  8108 ;;		_main
  8109 ;; This function uses a non-reentrant model
  8110 ;;
  8111                           
  8112                           	psect	text33
  8113  003976                     __ptext33:
  8114                           	callstack 0
  8115  003976                     _printDisplayLCD:
  8116                           	callstack 27
  8117  003976                     
  8118                           ;./rotina.h: 12:     Posiciona_LCD(line,col);
  8119  003976  C00A  F003         	movff	printDisplayLCD@col,Posiciona_LCD@coluna
  8120  00397A  5008               	movf	printDisplayLCD@line^0,w,c
  8121  00397C  EC18  F01A         	call	_Posiciona_LCD
  8122  003980                     
  8123                           ;./rotina.h: 13:     Escreve_LCD(text);
  8124  003980  C00C  F003         	movff	printDisplayLCD@text,Escreve_LCD@caracter
  8125  003984  C00D  F004         	movff	printDisplayLCD@text+1,Escreve_LCD@caracter+1
  8126  003988  EC5B  F01A         	call	_Escreve_LCD	;wreg free
  8127  00398C                     
  8128                           ;./rotina.h: 14:     _delay((unsigned long)((100)*(8000000/4000.0)));
  8129  00398C  0E02               	movlw	2
  8130  00398E  6E0F               	movwf	(??_printDisplayLCD+1)^0,c
  8131  003990  0E04               	movlw	4
  8132  003992  6E0E               	movwf	??_printDisplayLCD^0,c
  8133  003994  0EBA               	movlw	186
  8134  003996                     u4697:
  8135  003996  2EE8               	decfsz	wreg,f,c
  8136  003998  D7FE               	bra	u4697
  8137  00399A  2E0E               	decfsz	??_printDisplayLCD^0,f,c
  8138  00399C  D7FC               	bra	u4697
  8139  00399E  2E0F               	decfsz	(??_printDisplayLCD+1)^0,f,c
  8140  0039A0  D7FA               	bra	u4697
  8141  0039A2  D000               	nop2	
  8142  0039A4  0012               	return		;funcret
  8143  0039A6                     __end_of_printDisplayLCD:
  8144                           	callstack 0
  8145                           
  8146 ;; *************** function _Posiciona_LCD *****************
  8147 ;; Defined at:
  8148 ;;		line 37 in file "./lcd.h"
  8149 ;; Parameters:    Size  Location     Type
  8150 ;;  linha           1    wreg     unsigned char 
  8151 ;;  coluna          1    2[COMRAM] unsigned char 
  8152 ;; Auto vars:     Size  Location     Type
  8153 ;;  linha           1    5[COMRAM] unsigned char 
  8154 ;;  x               1    6[COMRAM] unsigned char 
  8155 ;; Return value:  Size  Location     Type
  8156 ;;                  1    wreg      void 
  8157 ;; Registers used:
  8158 ;;		wreg, status,2, status,0, cstack
  8159 ;; Tracked objects:
  8160 ;;		On entry : 0/0
  8161 ;;		On exit  : 0/0
  8162 ;;		Unchanged: 0/0
  8163 ;; Data sizes:     COMRAM   BANK0   BANK1   BANK2   BANK3   BANK4   BANK5   BANK6   BANK7
  8164 ;;      Params:         1       0       0       0       0       0       0       0       0
  8165 ;;      Locals:         2       0       0       0       0       0       0       0       0
  8166 ;;      Temps:          2       0       0       0       0       0       0       0       0
  8167 ;;      Totals:         5       0       0       0       0       0       0       0       0
  8168 ;;Total ram usage:        5 bytes
  8169 ;; Hardware stack levels used: 1
  8170 ;; Hardware stack levels required when called: 1
  8171 ;; This function calls:
  8172 ;;		_Comando_LCD
  8173 ;; This function is called by:
  8174 ;;		_printDisplayLCD
  8175 ;; This function uses a non-reentrant model
  8176 ;;
  8177                           
  8178                           	psect	text34
  8179  003430                     __ptext34:
  8180                           	callstack 0
  8181  003430                     _Posiciona_LCD:
  8182                           	callstack 27
  8183                           
  8184                           ;incstack = 0
  8185                           ;Posiciona_LCD@linha stored from wreg
  8186  003430  6E06               	movwf	Posiciona_LCD@linha^0,c
  8187  003432                     
  8188                           ;./lcd.h: 38:    unsigned char x = 0;
  8189  003432  0E00               	movlw	0
  8190  003434  6E07               	movwf	Posiciona_LCD@x^0,c
  8191  003436                     
  8192                           ;./lcd.h: 39:    --coluna;
  8193  003436  0603               	decf	Posiciona_LCD@coluna^0,f,c
  8194                           
  8195                           ;./lcd.h: 40:    switch (linha){
  8196  003438  EF32  F01A         	goto	l3871
  8197  00343C                     l3861:
  8198  00343C  5003               	movf	Posiciona_LCD@coluna^0,w,c
  8199  00343E  0F80               	addlw	128
  8200  003440  6E07               	movwf	Posiciona_LCD@x^0,c
  8201                           
  8202                           ;./lcd.h: 42:                break;
  8203  003442  EF4F  F01A         	goto	l3873
  8204  003446                     l3863:
  8205  003446  5003               	movf	Posiciona_LCD@coluna^0,w,c
  8206  003448  0FC0               	addlw	192
  8207  00344A  6E07               	movwf	Posiciona_LCD@x^0,c
  8208                           
  8209                           ;./lcd.h: 44:                break;
  8210  00344C  EF4F  F01A         	goto	l3873
  8211  003450                     l3865:
  8212  003450  5003               	movf	Posiciona_LCD@coluna^0,w,c
  8213  003452  0F90               	addlw	144
  8214  003454  6E07               	movwf	Posiciona_LCD@x^0,c
  8215                           
  8216                           ;./lcd.h: 46:                break;
  8217  003456  EF4F  F01A         	goto	l3873
  8218  00345A                     l3867:
  8219  00345A  5003               	movf	Posiciona_LCD@coluna^0,w,c
  8220  00345C  0FD0               	addlw	208
  8221  00345E  6E07               	movwf	Posiciona_LCD@x^0,c
  8222                           
  8223                           ;./lcd.h: 48:                break;
  8224  003460  EF4F  F01A         	goto	l3873
  8225  003464                     l3871:
  8226  003464  5006               	movf	Posiciona_LCD@linha^0,w,c
  8227  003466  6E04               	movwf	??_Posiciona_LCD^0,c
  8228  003468  6A05               	clrf	(??_Posiciona_LCD+1)^0,c
  8229                           
  8230                           ; Switch on 2 bytes has been partitioned into a top level switch of size 1, and 1 sub-sw
      +                          itches
  8231                           ; Switch size 1, requested type "simple"
  8232                           ; Number of cases is 1, Range of values is 0 to 0
  8233                           ; switch strategies available:
  8234                           ; Name         Instructions Cycles
  8235                           ; simple_byte            4     3 (average)
  8236                           ;	Chosen strategy is simple_byte
  8237  00346A  5005               	movf	(??_Posiciona_LCD+1)^0,w,c
  8238  00346C  0A00               	xorlw	0	; case 0
  8239  00346E  B4D8               	btfsc	status,2,c
  8240  003470  EF3C  F01A         	goto	l4113
  8241  003474  EF4F  F01A         	goto	l3873
  8242  003478                     l4113:
  8243                           
  8244                           ; Switch size 1, requested type "simple"
  8245                           ; Number of cases is 4, Range of values is 1 to 4
  8246                           ; switch strategies available:
  8247                           ; Name         Instructions Cycles
  8248                           ; simple_byte           13     7 (average)
  8249                           ;	Chosen strategy is simple_byte
  8250  003478  5004               	movf	??_Posiciona_LCD^0,w,c
  8251  00347A  0A01               	xorlw	1	; case 1
  8252  00347C  B4D8               	btfsc	status,2,c
  8253  00347E  EF1E  F01A         	goto	l3861
  8254  003482  0A03               	xorlw	3	; case 2
  8255  003484  B4D8               	btfsc	status,2,c
  8256  003486  EF23  F01A         	goto	l3863
  8257  00348A  0A01               	xorlw	1	; case 3
  8258  00348C  B4D8               	btfsc	status,2,c
  8259  00348E  EF28  F01A         	goto	l3865
  8260  003492  0A07               	xorlw	7	; case 4
  8261  003494  B4D8               	btfsc	status,2,c
  8262  003496  EF2D  F01A         	goto	l3867
  8263  00349A  EF4F  F01A         	goto	l3873
  8264  00349E                     l3873:
  8265                           
  8266                           ;./lcd.h: 51:    if (x != 0) Comando_LCD (x);
  8267  00349E  5007               	movf	Posiciona_LCD@x^0,w,c
  8268  0034A0  B4D8               	btfsc	status,2,c
  8269  0034A2  EF55  F01A         	goto	u4451
  8270  0034A6  EF57  F01A         	goto	u4450
  8271  0034AA                     u4451:
  8272  0034AA  EF5A  F01A         	goto	l58
  8273  0034AE                     u4450:
  8274  0034AE  5007               	movf	Posiciona_LCD@x^0,w,c
  8275  0034B0  ECE9  F01C         	call	_Comando_LCD
  8276  0034B4                     l58:
  8277  0034B4  0012               	return		;funcret
  8278  0034B6                     __end_of_Posiciona_LCD:
  8279                           	callstack 0
  8280                           
  8281 ;; *************** function _Escreve_LCD *****************
  8282 ;; Defined at:
  8283 ;;		line 73 in file "./lcd.h"
  8284 ;; Parameters:    Size  Location     Type
  8285 ;;  caracter        2    2[COMRAM] PTR unsigned char 
  8286 ;;		 -> STR_7(10), STR_6(12), potentiometer_temperature@temperatura_texto(10), STR_4(8), 
  8287 ;;		 -> STR_3(13), STR_2(13), STR_1(11), 
  8288 ;; Auto vars:     Size  Location     Type
  8289 ;;		None
  8290 ;; Return value:  Size  Location     Type
  8291 ;;                  1    wreg      void 
  8292 ;; Registers used:
  8293 ;;		wreg, fsr1l, fsr1h, status,2, status,0, tblptrl, tblptrh, tblptru, cstack
  8294 ;; Tracked objects:
  8295 ;;		On entry : 0/0
  8296 ;;		On exit  : 0/0
  8297 ;;		Unchanged: 0/0
  8298 ;; Data sizes:     COMRAM   BANK0   BANK1   BANK2   BANK3   BANK4   BANK5   BANK6   BANK7
  8299 ;;      Params:         2       0       0       0       0       0       0       0       0
  8300 ;;      Locals:         0       0       0       0       0       0       0       0       0
  8301 ;;      Temps:          1       0       0       0       0       0       0       0       0
  8302 ;;      Totals:         3       0       0       0       0       0       0       0       0
  8303 ;;Total ram usage:        3 bytes
  8304 ;; Hardware stack levels used: 1
  8305 ;; Hardware stack levels required when called: 1
  8306 ;; This function calls:
  8307 ;;		_Escreve_C_LCD
  8308 ;; This function is called by:
  8309 ;;		_printDisplayLCD
  8310 ;; This function uses a non-reentrant model
  8311 ;;
  8312                           
  8313                           	psect	text35
  8314  0034B6                     __ptext35:
  8315                           	callstack 0
  8316  0034B6                     _Escreve_LCD:
  8317                           	callstack 27
  8318  0034B6                     
  8319                           ;./lcd.h: 74:    while (*caracter != '\0'){
  8320  0034B6  EF79  F01A         	goto	l3889
  8321  0034BA                     l3883:
  8322                           
  8323                           ;./lcd.h: 75:       Escreve_C_LCD (*caracter);
  8324  0034BA  C003  FFF6         	movff	Escreve_LCD@caracter,tblptrl
  8325  0034BE  C004  FFF7         	movff	Escreve_LCD@caracter+1,tblptrh
  8326  0034C2  6AF8               	clrf	tblptru,c
  8327  0034C4  0E07               	movlw	(high __ramtop+-1)
  8328  0034C6  64F7               	cpfsgt	tblptrh,c
  8329  0034C8  D003               	bra	u4467
  8330  0034CA  0008               	tblrd		*
  8331  0034CC  50F5               	movf	tablat,w,c
  8332  0034CE  D005               	bra	u4460
  8333  0034D0                     u4467:
  8334  0034D0  CFF6 FFE1          	movff	tblptrl,fsr1l
  8335  0034D4  CFF7 FFE2          	movff	tblptrh,fsr1h
  8336  0034D8  50E7               	movf	indf1,w,c
  8337  0034DA                     u4460:
  8338  0034DA  EC2D  F01C         	call	_Escreve_C_LCD
  8339  0034DE                     
  8340                           ;./lcd.h: 76:       ++caracter;
  8341  0034DE  4A03               	infsnz	Escreve_LCD@caracter^0,f,c
  8342  0034E0  2A04               	incf	(Escreve_LCD@caracter+1)^0,f,c
  8343  0034E2                     
  8344                           ;./lcd.h: 77:       _delay((unsigned long)((10)*(8000000/4000.0)));
  8345  0034E2  0E1A               	movlw	26
  8346  0034E4  6E05               	movwf	??_Escreve_LCD^0,c
  8347  0034E6  0EF8               	movlw	248
  8348  0034E8                     u4707:
  8349  0034E8  2EE8               	decfsz	wreg,f,c
  8350  0034EA  D7FE               	bra	u4707
  8351  0034EC  2E05               	decfsz	??_Escreve_LCD^0,f,c
  8352  0034EE  D7FC               	bra	u4707
  8353  0034F0  D000               	nop2	
  8354  0034F2                     l3889:
  8355                           
  8356                           ;./lcd.h: 74:    while (*caracter != '\0'){
  8357  0034F2  C003  FFF6         	movff	Escreve_LCD@caracter,tblptrl
  8358  0034F6  C004  FFF7         	movff	Escreve_LCD@caracter+1,tblptrh
  8359  0034FA  6AF8               	clrf	tblptru,c
  8360  0034FC  0E07               	movlw	(high __ramtop+-1)
  8361  0034FE  64F7               	cpfsgt	tblptrh,c
  8362  003500  D003               	bra	u4477
  8363  003502  0008               	tblrd		*
  8364  003504  50F5               	movf	tablat,w,c
  8365  003506  D005               	bra	u4470
  8366  003508                     u4477:
  8367  003508  CFF6 FFE1          	movff	tblptrl,fsr1l
  8368  00350C  CFF7 FFE2          	movff	tblptrh,fsr1h
  8369  003510  50E7               	movf	indf1,w,c
  8370  003512                     u4470:
  8371  003512  0900               	iorlw	0
  8372  003514  A4D8               	btfss	status,2,c
  8373  003516  EF8F  F01A         	goto	u4481
  8374  00351A  EF91  F01A         	goto	u4480
  8375  00351E                     u4481:
  8376  00351E  EF5D  F01A         	goto	l3883
  8377  003522                     u4480:
  8378  003522  0012               	return		;funcret
  8379  003524                     __end_of_Escreve_LCD:
  8380                           	callstack 0
  8381                           
  8382 ;; *************** function _Escreve_C_LCD *****************
  8383 ;; Defined at:
  8384 ;;		line 57 in file "./lcd.h"
  8385 ;; Parameters:    Size  Location     Type
  8386 ;;  caracter        1    wreg     unsigned char 
  8387 ;; Auto vars:     Size  Location     Type
  8388 ;;  caracter        1    1[COMRAM] unsigned char 
  8389 ;; Return value:  Size  Location     Type
  8390 ;;                  1    wreg      void 
  8391 ;; Registers used:
  8392 ;;		wreg, status,2, cstack
  8393 ;; Tracked objects:
  8394 ;;		On entry : 0/0
  8395 ;;		On exit  : 0/0
  8396 ;;		Unchanged: 0/0
  8397 ;; Data sizes:     COMRAM   BANK0   BANK1   BANK2   BANK3   BANK4   BANK5   BANK6   BANK7
  8398 ;;      Params:         0       0       0       0       0       0       0       0       0
  8399 ;;      Locals:         1       0       0       0       0       0       0       0       0
  8400 ;;      Temps:          1       0       0       0       0       0       0       0       0
  8401 ;;      Totals:         2       0       0       0       0       0       0       0       0
  8402 ;;Total ram usage:        2 bytes
  8403 ;; Hardware stack levels used: 1
  8404 ;; This function calls:
  8405 ;;		Nothing
  8406 ;; This function is called by:
  8407 ;;		_Escreve_LCD
  8408 ;; This function uses a non-reentrant model
  8409 ;;
  8410                           
  8411                           	psect	text36
  8412  00385A                     __ptext36:
  8413                           	callstack 0
  8414  00385A                     _Escreve_C_LCD:
  8415                           	callstack 27
  8416                           
  8417                           ;incstack = 0
  8418                           ;Escreve_C_LCD@caracter stored from wreg
  8419  00385A  6E02               	movwf	Escreve_C_LCD@caracter^0,c
  8420  00385C                     
  8421                           ;./lcd.h: 58:    PORTEbits.RE2 = 1;
  8422  00385C  8484               	bsf	132,2,c	;volatile
  8423                           
  8424                           ;./lcd.h: 61:    PORTEbits.RE1 = 0;
  8425  00385E  9284               	bcf	132,1,c	;volatile
  8426  003860                     
  8427                           ;./lcd.h: 62:    _delay((unsigned long)((5)*(8000000/4000.0)));
  8428  003860  0E0D               	movlw	13
  8429  003862  6E01               	movwf	??_Escreve_C_LCD^0,c
  8430  003864  0EFC               	movlw	252
  8431  003866                     u4717:
  8432  003866  2EE8               	decfsz	wreg,f,c
  8433  003868  D7FE               	bra	u4717
  8434  00386A  2E01               	decfsz	??_Escreve_C_LCD^0,f,c
  8435  00386C  D7FC               	bra	u4717
  8436  00386E                     
  8437                           ;./lcd.h: 63:    PORTD = caracter;
  8438  00386E  C002  FF83         	movff	Escreve_C_LCD@caracter,3971	;volatile
  8439  003872                     
  8440                           ;./lcd.h: 64:    PORTEbits.RE1 = 1;
  8441  003872  8284               	bsf	132,1,c	;volatile
  8442  003874                     
  8443                           ;./lcd.h: 65:    _delay((unsigned long)((10)*(8000000/4000.0)));
  8444  003874  0E1A               	movlw	26
  8445  003876  6E01               	movwf	??_Escreve_C_LCD^0,c
  8446  003878  0EF8               	movlw	248
  8447  00387A                     u4727:
  8448  00387A  2EE8               	decfsz	wreg,f,c
  8449  00387C  D7FE               	bra	u4727
  8450  00387E  2E01               	decfsz	??_Escreve_C_LCD^0,f,c
  8451  003880  D7FC               	bra	u4727
  8452  003882  D000               	nop2	
  8453  003884                     
  8454                           ;./lcd.h: 66:    PORTEbits.RE1 = 0;
  8455  003884  9284               	bcf	132,1,c	;volatile
  8456  003886                     
  8457                           ;./lcd.h: 67:    _delay((unsigned long)((10)*(8000000/4000.0)));
  8458  003886  0E1A               	movlw	26
  8459  003888  6E01               	movwf	??_Escreve_C_LCD^0,c
  8460  00388A  0EF8               	movlw	248
  8461  00388C                     u4737:
  8462  00388C  2EE8               	decfsz	wreg,f,c
  8463  00388E  D7FE               	bra	u4737
  8464  003890  2E01               	decfsz	??_Escreve_C_LCD^0,f,c
  8465  003892  D7FC               	bra	u4737
  8466  003894  D000               	nop2	
  8467  003896  0012               	return		;funcret
  8468  003898                     __end_of_Escreve_C_LCD:
  8469                           	callstack 0
  8470                           
  8471 ;; *************** function ___xxtofl *****************
  8472 ;; Defined at:
  8473 ;;		line 10 in file "C:\Program Files\Microchip\xc8\v2.36\pic\sources\c99\common\xxtofl.c"
  8474 ;; Parameters:    Size  Location     Type
  8475 ;;  sign            1    wreg     unsigned char 
  8476 ;;  val             4    0[COMRAM] long 
  8477 ;; Auto vars:     Size  Location     Type
  8478 ;;  sign            1    8[COMRAM] unsigned char 
  8479 ;;  arg             4   10[COMRAM] unsigned long 
  8480 ;;  exp             1    9[COMRAM] unsigned char 
  8481 ;; Return value:  Size  Location     Type
  8482 ;;                  4    0[COMRAM] unsigned char 
  8483 ;; Registers used:
  8484 ;;		wreg, status,2, status,0
  8485 ;; Tracked objects:
  8486 ;;		On entry : 0/0
  8487 ;;		On exit  : 0/0
  8488 ;;		Unchanged: 0/0
  8489 ;; Data sizes:     COMRAM   BANK0   BANK1   BANK2   BANK3   BANK4   BANK5   BANK6   BANK7
  8490 ;;      Params:         4       0       0       0       0       0       0       0       0
  8491 ;;      Locals:         6       0       0       0       0       0       0       0       0
  8492 ;;      Temps:          4       0       0       0       0       0       0       0       0
  8493 ;;      Totals:        14       0       0       0       0       0       0       0       0
  8494 ;;Total ram usage:       14 bytes
  8495 ;; Hardware stack levels used: 1
  8496 ;; This function calls:
  8497 ;;		Nothing
  8498 ;; This function is called by:
  8499 ;;		_potentiometer_temperature
  8500 ;; This function uses a non-reentrant model
  8501 ;;
  8502                           
  8503                           	psect	text37
  8504  00272E                     __ptext37:
  8505                           	callstack 0
  8506  00272E                     ___xxtofl:
  8507                           	callstack 29
  8508                           
  8509                           ;incstack = 0
  8510                           ;___xxtofl@sign stored from wreg
  8511  00272E  6E09               	movwf	___xxtofl@sign^0,c
  8512  002730  5009               	movf	___xxtofl@sign^0,w,c
  8513  002732  B4D8               	btfsc	status,2,c
  8514  002734  EF9E  F013         	goto	u4511
  8515  002738  EFA0  F013         	goto	u4510
  8516  00273C                     u4511:
  8517  00273C  EFC2  F013         	goto	l768
  8518  002740                     u4510:
  8519  002740  BE04               	btfsc	(___xxtofl@val+3)^0,7,c
  8520  002742  EFA7  F013         	goto	u4520
  8521  002746  EFA5  F013         	goto	u4521
  8522  00274A                     u4521:
  8523  00274A  EFC2  F013         	goto	l768
  8524  00274E                     u4520:
  8525  00274E  C001  F005         	movff	___xxtofl@val,??___xxtofl
  8526  002752  C002  F006         	movff	___xxtofl@val+1,??___xxtofl+1
  8527  002756  C003  F007         	movff	___xxtofl@val+2,??___xxtofl+2
  8528  00275A  C004  F008         	movff	___xxtofl@val+3,??___xxtofl+3
  8529  00275E  1E05               	comf	??___xxtofl^0,f,c
  8530  002760  1E06               	comf	(??___xxtofl+1)^0,f,c
  8531  002762  1E07               	comf	(??___xxtofl+2)^0,f,c
  8532  002764  1E08               	comf	(??___xxtofl+3)^0,f,c
  8533  002766  2A05               	incf	??___xxtofl^0,f,c
  8534  002768  0E00               	movlw	0
  8535  00276A  2206               	addwfc	(??___xxtofl+1)^0,f,c
  8536  00276C  2207               	addwfc	(??___xxtofl+2)^0,f,c
  8537  00276E  2208               	addwfc	(??___xxtofl+3)^0,f,c
  8538  002770  C005  F00B         	movff	??___xxtofl,___xxtofl@arg
  8539  002774  C006  F00C         	movff	??___xxtofl+1,___xxtofl@arg+1
  8540  002778  C007  F00D         	movff	??___xxtofl+2,___xxtofl@arg+2
  8541  00277C  C008  F00E         	movff	??___xxtofl+3,___xxtofl@arg+3
  8542  002780  EFCA  F013         	goto	l3937
  8543  002784                     l768:
  8544  002784  C001  F00B         	movff	___xxtofl@val,___xxtofl@arg
  8545  002788  C002  F00C         	movff	___xxtofl@val+1,___xxtofl@arg+1
  8546  00278C  C003  F00D         	movff	___xxtofl@val+2,___xxtofl@arg+2
  8547  002790  C004  F00E         	movff	___xxtofl@val+3,___xxtofl@arg+3
  8548  002794                     l3937:
  8549  002794  5001               	movf	___xxtofl@val^0,w,c
  8550  002796  1002               	iorwf	(___xxtofl@val+1)^0,w,c
  8551  002798  1003               	iorwf	(___xxtofl@val+2)^0,w,c
  8552  00279A  1004               	iorwf	(___xxtofl@val+3)^0,w,c
  8553  00279C  A4D8               	btfss	status,2,c
  8554  00279E  EFD3  F013         	goto	u4531
  8555  0027A2  EFD5  F013         	goto	u4530
  8556  0027A6                     u4531:
  8557  0027A6  EFDF  F013         	goto	l3943
  8558  0027AA                     u4530:
  8559  0027AA  0E00               	movlw	0
  8560  0027AC  6E01               	movwf	?___xxtofl^0,c
  8561  0027AE  0E00               	movlw	0
  8562  0027B0  6E02               	movwf	(?___xxtofl+1)^0,c
  8563  0027B2  0E00               	movlw	0
  8564  0027B4  6E03               	movwf	(?___xxtofl+2)^0,c
  8565  0027B6  0E00               	movlw	0
  8566  0027B8  6E04               	movwf	(?___xxtofl+3)^0,c
  8567  0027BA  EF70  F014         	goto	l771
  8568  0027BE                     l3943:
  8569  0027BE  0E96               	movlw	150
  8570  0027C0  6E0A               	movwf	___xxtofl@exp^0,c
  8571  0027C2  EFE9  F013         	goto	l3947
  8572  0027C6                     l3945:
  8573  0027C6  2A0A               	incf	___xxtofl@exp^0,f,c
  8574  0027C8  90D8               	bcf	status,0,c
  8575  0027CA  320E               	rrcf	(___xxtofl@arg+3)^0,f,c
  8576  0027CC  320D               	rrcf	(___xxtofl@arg+2)^0,f,c
  8577  0027CE  320C               	rrcf	(___xxtofl@arg+1)^0,f,c
  8578  0027D0  320B               	rrcf	___xxtofl@arg^0,f,c
  8579  0027D2                     l3947:
  8580  0027D2  0E00               	movlw	0
  8581  0027D4  140B               	andwf	___xxtofl@arg^0,w,c
  8582  0027D6  6E05               	movwf	??___xxtofl^0,c
  8583  0027D8  0E00               	movlw	0
  8584  0027DA  140C               	andwf	(___xxtofl@arg+1)^0,w,c
  8585  0027DC  6E06               	movwf	(??___xxtofl+1)^0,c
  8586  0027DE  0E00               	movlw	0
  8587  0027E0  140D               	andwf	(___xxtofl@arg+2)^0,w,c
  8588  0027E2  6E07               	movwf	(??___xxtofl+2)^0,c
  8589  0027E4  0EFE               	movlw	254
  8590  0027E6  140E               	andwf	(___xxtofl@arg+3)^0,w,c
  8591  0027E8  6E08               	movwf	(??___xxtofl+3)^0,c
  8592  0027EA  5005               	movf	??___xxtofl^0,w,c
  8593  0027EC  1006               	iorwf	(??___xxtofl+1)^0,w,c
  8594  0027EE  1007               	iorwf	(??___xxtofl+2)^0,w,c
  8595  0027F0  1008               	iorwf	(??___xxtofl+3)^0,w,c
  8596  0027F2  A4D8               	btfss	status,2,c
  8597  0027F4  EFFE  F013         	goto	u4541
  8598  0027F8  EF00  F014         	goto	u4540
  8599  0027FC                     u4541:
  8600  0027FC  EFE3  F013         	goto	l3945
  8601  002800                     u4540:
  8602  002800  EF0E  F014         	goto	l775
  8603  002804                     l3949:
  8604  002804  2A0A               	incf	___xxtofl@exp^0,f,c
  8605  002806  0E01               	movlw	1
  8606  002808  260B               	addwf	___xxtofl@arg^0,f,c
  8607  00280A  0E00               	movlw	0
  8608  00280C  220C               	addwfc	(___xxtofl@arg+1)^0,f,c
  8609  00280E  220D               	addwfc	(___xxtofl@arg+2)^0,f,c
  8610  002810  220E               	addwfc	(___xxtofl@arg+3)^0,f,c
  8611  002812  90D8               	bcf	status,0,c
  8612  002814  320E               	rrcf	(___xxtofl@arg+3)^0,f,c
  8613  002816  320D               	rrcf	(___xxtofl@arg+2)^0,f,c
  8614  002818  320C               	rrcf	(___xxtofl@arg+1)^0,f,c
  8615  00281A  320B               	rrcf	___xxtofl@arg^0,f,c
  8616  00281C                     l775:
  8617  00281C  0E00               	movlw	0
  8618  00281E  140B               	andwf	___xxtofl@arg^0,w,c
  8619  002820  6E05               	movwf	??___xxtofl^0,c
  8620  002822  0E00               	movlw	0
  8621  002824  140C               	andwf	(___xxtofl@arg+1)^0,w,c
  8622  002826  6E06               	movwf	(??___xxtofl+1)^0,c
  8623  002828  0E00               	movlw	0
  8624  00282A  140D               	andwf	(___xxtofl@arg+2)^0,w,c
  8625  00282C  6E07               	movwf	(??___xxtofl+2)^0,c
  8626  00282E  0EFF               	movlw	255
  8627  002830  140E               	andwf	(___xxtofl@arg+3)^0,w,c
  8628  002832  6E08               	movwf	(??___xxtofl+3)^0,c
  8629  002834  5005               	movf	??___xxtofl^0,w,c
  8630  002836  1006               	iorwf	(??___xxtofl+1)^0,w,c
  8631  002838  1007               	iorwf	(??___xxtofl+2)^0,w,c
  8632  00283A  1008               	iorwf	(??___xxtofl+3)^0,w,c
  8633  00283C  A4D8               	btfss	status,2,c
  8634  00283E  EF23  F014         	goto	u4551
  8635  002842  EF25  F014         	goto	u4550
  8636  002846                     u4551:
  8637  002846  EF02  F014         	goto	l3949
  8638  00284A                     u4550:
  8639  00284A  EF2D  F014         	goto	l3957
  8640  00284E                     l3955:
  8641  00284E  060A               	decf	___xxtofl@exp^0,f,c
  8642  002850  90D8               	bcf	status,0,c
  8643  002852  360B               	rlcf	___xxtofl@arg^0,f,c
  8644  002854  360C               	rlcf	(___xxtofl@arg+1)^0,f,c
  8645  002856  360D               	rlcf	(___xxtofl@arg+2)^0,f,c
  8646  002858  360E               	rlcf	(___xxtofl@arg+3)^0,f,c
  8647  00285A                     l3957:
  8648  00285A  BE0D               	btfsc	(___xxtofl@arg+2)^0,7,c
  8649  00285C  EF32  F014         	goto	u4561
  8650  002860  EF34  F014         	goto	u4560
  8651  002864                     u4561:
  8652  002864  EF3C  F014         	goto	l782
  8653  002868                     u4560:
  8654  002868  0E02               	movlw	2
  8655  00286A  600A               	cpfslt	___xxtofl@exp^0,c
  8656  00286C  EF3A  F014         	goto	u4571
  8657  002870  EF3C  F014         	goto	u4570
  8658  002874                     u4571:
  8659  002874  EF27  F014         	goto	l3955
  8660  002878                     u4570:
  8661  002878                     l782:
  8662  002878  B00A               	btfsc	___xxtofl@exp^0,0,c
  8663  00287A  EF41  F014         	goto	u4581
  8664  00287E  EF43  F014         	goto	u4580
  8665  002882                     u4581:
  8666  002882  EF44  F014         	goto	l3963
  8667  002886                     u4580:
  8668  002886  9E0D               	bcf	(___xxtofl@arg+2)^0,7,c
  8669  002888                     l3963:
  8670  002888  90D8               	bcf	status,0,c
  8671  00288A  320A               	rrcf	___xxtofl@exp^0,f,c
  8672  00288C  C00A  F005         	movff	___xxtofl@exp,??___xxtofl
  8673  002890  6A06               	clrf	(??___xxtofl+1)^0,c
  8674  002892  6A07               	clrf	(??___xxtofl+2)^0,c
  8675  002894  6A08               	clrf	(??___xxtofl+3)^0,c
  8676  002896  C005  F008         	movff	??___xxtofl,??___xxtofl+3
  8677  00289A  6A07               	clrf	(??___xxtofl+2)^0,c
  8678  00289C  6A06               	clrf	(??___xxtofl+1)^0,c
  8679  00289E  6A05               	clrf	??___xxtofl^0,c
  8680  0028A0  5005               	movf	??___xxtofl^0,w,c
  8681  0028A2  120B               	iorwf	___xxtofl@arg^0,f,c
  8682  0028A4  5006               	movf	(??___xxtofl+1)^0,w,c
  8683  0028A6  120C               	iorwf	(___xxtofl@arg+1)^0,f,c
  8684  0028A8  5007               	movf	(??___xxtofl+2)^0,w,c
  8685  0028AA  120D               	iorwf	(___xxtofl@arg+2)^0,f,c
  8686  0028AC  5008               	movf	(??___xxtofl+3)^0,w,c
  8687  0028AE  120E               	iorwf	(___xxtofl@arg+3)^0,f,c
  8688  0028B0  5009               	movf	___xxtofl@sign^0,w,c
  8689  0028B2  B4D8               	btfsc	status,2,c
  8690  0028B4  EF5E  F014         	goto	u4591
  8691  0028B8  EF60  F014         	goto	u4590
  8692  0028BC                     u4591:
  8693  0028BC  EF68  F014         	goto	l3973
  8694  0028C0                     u4590:
  8695  0028C0  BE04               	btfsc	(___xxtofl@val+3)^0,7,c
  8696  0028C2  EF67  F014         	goto	u4600
  8697  0028C6  EF65  F014         	goto	u4601
  8698  0028CA                     u4601:
  8699  0028CA  EF68  F014         	goto	l3973
  8700  0028CE                     u4600:
  8701  0028CE  8E0E               	bsf	(___xxtofl@arg+3)^0,7,c
  8702  0028D0                     l3973:
  8703  0028D0  C00B  F001         	movff	___xxtofl@arg,?___xxtofl
  8704  0028D4  C00C  F002         	movff	___xxtofl@arg+1,?___xxtofl+1
  8705  0028D8  C00D  F003         	movff	___xxtofl@arg+2,?___xxtofl+2
  8706  0028DC  C00E  F004         	movff	___xxtofl@arg+3,?___xxtofl+3
  8707  0028E0                     l771:
  8708  0028E0  0012               	return		;funcret
  8709  0028E2                     __end_of___xxtofl:
  8710                           	callstack 0
  8711                           
  8712 ;; *************** function _Ler_ADC *****************
  8713 ;; Defined at:
  8714 ;;		line 13 in file "./adc.h"
  8715 ;; Parameters:    Size  Location     Type
  8716 ;;		None
  8717 ;; Auto vars:     Size  Location     Type
  8718 ;;  temp            2    4[COMRAM] unsigned int 
  8719 ;; Return value:  Size  Location     Type
  8720 ;;                  2    0[COMRAM] unsigned int 
  8721 ;; Registers used:
  8722 ;;		wreg, status,2
  8723 ;; Tracked objects:
  8724 ;;		On entry : 0/0
  8725 ;;		On exit  : 0/0
  8726 ;;		Unchanged: 0/0
  8727 ;; Data sizes:     COMRAM   BANK0   BANK1   BANK2   BANK3   BANK4   BANK5   BANK6   BANK7
  8728 ;;      Params:         2       0       0       0       0       0       0       0       0
  8729 ;;      Locals:         2       0       0       0       0       0       0       0       0
  8730 ;;      Temps:          2       0       0       0       0       0       0       0       0
  8731 ;;      Totals:         6       0       0       0       0       0       0       0       0
  8732 ;;Total ram usage:        6 bytes
  8733 ;; Hardware stack levels used: 1
  8734 ;; This function calls:
  8735 ;;		Nothing
  8736 ;; This function is called by:
  8737 ;;		_potentiometer_temperature
  8738 ;; This function uses a non-reentrant model
  8739 ;;
  8740                           
  8741                           	psect	text38
  8742  0039A6                     __ptext38:
  8743                           	callstack 0
  8744  0039A6                     _Ler_ADC:
  8745                           	callstack 29
  8746  0039A6                     
  8747                           ;./adc.h: 14:     unsigned int temp;;./adc.h: 16:     ADCON0bits.GO = 1;
  8748  0039A6  82C2               	bsf	194,1,c	;volatile
  8749  0039A8                     l81:
  8750  0039A8  B2C2               	btfsc	194,1,c	;volatile
  8751  0039AA  EFD9  F01C         	goto	u4501
  8752  0039AE  EFDB  F01C         	goto	u4500
  8753  0039B2                     u4501:
  8754  0039B2  EFD4  F01C         	goto	l81
  8755  0039B6                     u4500:
  8756  0039B6                     
  8757                           ;./adc.h: 18:     temp = ADRESH;
  8758  0039B6  CFC4 F005          	movff	4036,Ler_ADC@temp	;volatile
  8759  0039BA  6A06               	clrf	(Ler_ADC@temp+1)^0,c
  8760  0039BC                     
  8761                           ;./adc.h: 19:     temp = ((temp << 8)| ADRESL );
  8762  0039BC  5005               	movf	Ler_ADC@temp^0,w,c
  8763  0039BE  6E03               	movwf	??_Ler_ADC^0,c
  8764  0039C0  50C3               	movf	195,w,c	;volatile
  8765  0039C2  6E05               	movwf	Ler_ADC@temp^0,c
  8766  0039C4  C003  F006         	movff	??_Ler_ADC,Ler_ADC@temp+1
  8767  0039C8                     
  8768                           ;./adc.h: 21:     return temp;
  8769  0039C8  C005  F001         	movff	Ler_ADC@temp,?_Ler_ADC
  8770  0039CC  C006  F002         	movff	Ler_ADC@temp+1,?_Ler_ADC+1
  8771  0039D0  0012               	return		;funcret
  8772  0039D2                     __end_of_Ler_ADC:
  8773                           	callstack 0
  8774                           
  8775 ;; *************** function _Inicializa_ADC *****************
  8776 ;; Defined at:
  8777 ;;		line 4 in file "./adc.h"
  8778 ;; Parameters:    Size  Location     Type
  8779 ;;		None
  8780 ;; Auto vars:     Size  Location     Type
  8781 ;;		None
  8782 ;; Return value:  Size  Location     Type
  8783 ;;                  1    wreg      void 
  8784 ;; Registers used:
  8785 ;;		wreg, status,2
  8786 ;; Tracked objects:
  8787 ;;		On entry : 0/0
  8788 ;;		On exit  : 0/0
  8789 ;;		Unchanged: 0/0
  8790 ;; Data sizes:     COMRAM   BANK0   BANK1   BANK2   BANK3   BANK4   BANK5   BANK6   BANK7
  8791 ;;      Params:         0       0       0       0       0       0       0       0       0
  8792 ;;      Locals:         0       0       0       0       0       0       0       0       0
  8793 ;;      Temps:          0       0       0       0       0       0       0       0       0
  8794 ;;      Totals:         0       0       0       0       0       0       0       0       0
  8795 ;;Total ram usage:        0 bytes
  8796 ;; Hardware stack levels used: 1
  8797 ;; This function calls:
  8798 ;;		Nothing
  8799 ;; This function is called by:
  8800 ;;		_potentiometer_temperature
  8801 ;; This function uses a non-reentrant model
  8802 ;;
  8803                           
  8804                           	psect	text39
  8805  003A24                     __ptext39:
  8806                           	callstack 0
  8807  003A24                     _Inicializa_ADC:
  8808                           	callstack 29
  8809  003A24                     
  8810                           ;./adc.h: 5:     TRISAbits.RA0 = 1;
  8811  003A24  8092               	bsf	146,0,c	;volatile
  8812  003A26                     
  8813                           ;./adc.h: 6:     ADCON0 = 0;
  8814  003A26  0E00               	movlw	0
  8815  003A28  6EC2               	movwf	194,c	;volatile
  8816                           
  8817                           ;./adc.h: 7:     ADCON1 = 0x0E;
  8818  003A2A  0E0E               	movlw	14
  8819  003A2C  6EC1               	movwf	193,c	;volatile
  8820                           
  8821                           ;./adc.h: 8:     ADCON2 = 0xD9;
  8822  003A2E  0ED9               	movlw	217
  8823  003A30  6EC0               	movwf	192,c	;volatile
  8824  003A32                     
  8825                           ;./adc.h: 9:     ADCON0bits.ADON = 1;
  8826  003A32  80C2               	bsf	194,0,c	;volatile
  8827  003A34  0012               	return		;funcret
  8828  003A36                     __end_of_Inicializa_ADC:
  8829                           	callstack 0
  8830                           
  8831 ;; *************** function _Inicializa_LCD *****************
  8832 ;; Defined at:
  8833 ;;		line 85 in file "./lcd.h"
  8834 ;; Parameters:    Size  Location     Type
  8835 ;;		None
  8836 ;; Auto vars:     Size  Location     Type
  8837 ;;  x               1    3[COMRAM] unsigned char 
  8838 ;; Return value:  Size  Location     Type
  8839 ;;                  1    wreg      void 
  8840 ;; Registers used:
  8841 ;;		wreg, fsr2l, fsr2h, status,2, status,0, cstack
  8842 ;; Tracked objects:
  8843 ;;		On entry : 0/0
  8844 ;;		On exit  : 0/0
  8845 ;;		Unchanged: 0/0
  8846 ;; Data sizes:     COMRAM   BANK0   BANK1   BANK2   BANK3   BANK4   BANK5   BANK6   BANK7
  8847 ;;      Params:         0       0       0       0       0       0       0       0       0
  8848 ;;      Locals:         1       0       0       0       0       0       0       0       0
  8849 ;;      Temps:          1       0       0       0       0       0       0       0       0
  8850 ;;      Totals:         2       0       0       0       0       0       0       0       0
  8851 ;;Total ram usage:        2 bytes
  8852 ;; Hardware stack levels used: 1
  8853 ;; Hardware stack levels required when called: 1
  8854 ;; This function calls:
  8855 ;;		_Comando_LCD
  8856 ;; This function is called by:
  8857 ;;		_main
  8858 ;; This function uses a non-reentrant model
  8859 ;;
  8860                           
  8861                           	psect	text40
  8862  0035E8                     __ptext40:
  8863                           	callstack 0
  8864  0035E8                     _Inicializa_LCD:
  8865                           	callstack 29
  8866  0035E8                     
  8867                           ;./lcd.h: 86:    unsigned char x = 0;
  8868  0035E8  0E00               	movlw	0
  8869  0035EA  6E04               	movwf	Inicializa_LCD@x^0,c
  8870                           
  8871                           ;./lcd.h: 87:    static unsigned char ini [] = {0x38,0x38,0x38,0x0C,0x06,0x01,0x00};;./l
      +                          cd.h: 89:    ADCON1 = 0x0F;
  8872  0035EC  0E0F               	movlw	15
  8873  0035EE  6EC1               	movwf	193,c	;volatile
  8874                           
  8875                           ;./lcd.h: 91:    PORTD = 0x00;
  8876  0035F0  0E00               	movlw	0
  8877  0035F2  6E83               	movwf	131,c	;volatile
  8878  0035F4                     
  8879                           ;./lcd.h: 92:    PORTE = PORTE & 0xF8;
  8880  0035F4  5084               	movf	132,w,c	;volatile
  8881  0035F6  0BF8               	andlw	248
  8882  0035F8  6E84               	movwf	132,c	;volatile
  8883  0035FA                     
  8884                           ;./lcd.h: 93:    TRISD = 0x00;
  8885  0035FA  0E00               	movlw	0
  8886  0035FC  6E95               	movwf	149,c	;volatile
  8887                           
  8888                           ;./lcd.h: 94:    TRISE = TRISE & 0xF8;
  8889  0035FE  5096               	movf	150,w,c	;volatile
  8890  003600  0BF8               	andlw	248
  8891  003602  6E96               	movwf	150,c	;volatile
  8892                           
  8893                           ;./lcd.h: 96:    while (ini [x] != 0x00){
  8894  003604  EF15  F01B         	goto	l3989
  8895  003608                     l3983:
  8896                           
  8897                           ;./lcd.h: 97:       Comando_LCD (ini[x]);
  8898  003608  0ED3               	movlw	low Inicializa_LCD@ini
  8899  00360A  2404               	addwf	Inicializa_LCD@x^0,w,c
  8900  00360C  6ED9               	movwf	fsr2l,c
  8901  00360E  6ADA               	clrf	fsr2h,c
  8902  003610  0E00               	movlw	high Inicializa_LCD@ini
  8903  003612  22DA               	addwfc	fsr2h,f,c
  8904  003614  50DF               	movf	indf2,w,c
  8905  003616  ECE9  F01C         	call	_Comando_LCD
  8906  00361A                     
  8907                           ;./lcd.h: 98:       ++ x;
  8908  00361A  2A04               	incf	Inicializa_LCD@x^0,f,c
  8909  00361C                     
  8910                           ;./lcd.h: 99:       _delay((unsigned long)((5)*(8000000/4000.0)));
  8911  00361C  0E0D               	movlw	13
  8912  00361E  6E03               	movwf	??_Inicializa_LCD^0,c
  8913  003620  0EFC               	movlw	252
  8914  003622                     u4747:
  8915  003622  2EE8               	decfsz	wreg,f,c
  8916  003624  D7FE               	bra	u4747
  8917  003626  2E03               	decfsz	??_Inicializa_LCD^0,f,c
  8918  003628  D7FC               	bra	u4747
  8919  00362A                     l3989:
  8920                           
  8921                           ;./lcd.h: 96:    while (ini [x] != 0x00){
  8922  00362A  0ED3               	movlw	low Inicializa_LCD@ini
  8923  00362C  2404               	addwf	Inicializa_LCD@x^0,w,c
  8924  00362E  6ED9               	movwf	fsr2l,c
  8925  003630  6ADA               	clrf	fsr2h,c
  8926  003632  0E00               	movlw	high Inicializa_LCD@ini
  8927  003634  22DA               	addwfc	fsr2h,f,c
  8928  003636  50DF               	movf	indf2,w,c
  8929  003638  A4D8               	btfss	status,2,c
  8930  00363A  EF21  F01B         	goto	u4611
  8931  00363E  EF23  F01B         	goto	u4610
  8932  003642                     u4611:
  8933  003642  EF04  F01B         	goto	l3983
  8934  003646                     u4610:
  8935  003646  0012               	return		;funcret
  8936  003648                     __end_of_Inicializa_LCD:
  8937                           	callstack 0
  8938                           
  8939 ;; *************** function _Comando_LCD *****************
  8940 ;; Defined at:
  8941 ;;		line 23 in file "./lcd.h"
  8942 ;; Parameters:    Size  Location     Type
  8943 ;;  comando         1    wreg     unsigned char 
  8944 ;; Auto vars:     Size  Location     Type
  8945 ;;  comando         1    1[COMRAM] unsigned char 
  8946 ;; Return value:  Size  Location     Type
  8947 ;;                  1    wreg      void 
  8948 ;; Registers used:
  8949 ;;		wreg
  8950 ;; Tracked objects:
  8951 ;;		On entry : 0/0
  8952 ;;		On exit  : 0/0
  8953 ;;		Unchanged: 0/0
  8954 ;; Data sizes:     COMRAM   BANK0   BANK1   BANK2   BANK3   BANK4   BANK5   BANK6   BANK7
  8955 ;;      Params:         0       0       0       0       0       0       0       0       0
  8956 ;;      Locals:         1       0       0       0       0       0       0       0       0
  8957 ;;      Temps:          1       0       0       0       0       0       0       0       0
  8958 ;;      Totals:         2       0       0       0       0       0       0       0       0
  8959 ;;Total ram usage:        2 bytes
  8960 ;; Hardware stack levels used: 1
  8961 ;; This function calls:
  8962 ;;		Nothing
  8963 ;; This function is called by:
  8964 ;;		_Posiciona_LCD
  8965 ;;		_Inicializa_LCD
  8966 ;;		_turnon_coolerandheater
  8967 ;;		_potentiometer_temperature
  8968 ;;		_main
  8969 ;; This function uses a non-reentrant model
  8970 ;;
  8971                           
  8972                           	psect	text41
  8973  0039D2                     __ptext41:
  8974                           	callstack 0
  8975  0039D2                     _Comando_LCD:
  8976                           	callstack 27
  8977                           
  8978                           ;incstack = 0
  8979                           ;Comando_LCD@comando stored from wreg
  8980  0039D2  6E02               	movwf	Comando_LCD@comando^0,c
  8981  0039D4                     
  8982                           ;./lcd.h: 24:    PORTEbits.RE2 = 0;
  8983  0039D4  9484               	bcf	132,2,c	;volatile
  8984  0039D6                     
  8985                           ;./lcd.h: 27:    PORTD = comando;
  8986  0039D6  C002  FF83         	movff	Comando_LCD@comando,3971	;volatile
  8987  0039DA                     
  8988                           ;./lcd.h: 28:    PORTEbits.RE1 = 1;
  8989  0039DA  8284               	bsf	132,1,c	;volatile
  8990  0039DC                     
  8991                           ;./lcd.h: 29:    _delay((unsigned long)((5)*(8000000/4000.0)));
  8992  0039DC  0E0D               	movlw	13
  8993  0039DE  6E01               	movwf	??_Comando_LCD^0,c
  8994  0039E0  0EFC               	movlw	252
  8995  0039E2                     u4757:
  8996  0039E2  2EE8               	decfsz	wreg,f,c
  8997  0039E4  D7FE               	bra	u4757
  8998  0039E6  2E01               	decfsz	??_Comando_LCD^0,f,c
  8999  0039E8  D7FC               	bra	u4757
  9000  0039EA                     
  9001                           ;./lcd.h: 30:    PORTEbits.RE1 = 0;
  9002  0039EA  9284               	bcf	132,1,c	;volatile
  9003  0039EC                     
  9004                           ;./lcd.h: 31:    _delay((unsigned long)((10)*(8000000/4000.0)));
  9005  0039EC  0E1A               	movlw	26
  9006  0039EE  6E01               	movwf	??_Comando_LCD^0,c
  9007  0039F0  0EF8               	movlw	248
  9008  0039F2                     u4767:
  9009  0039F2  2EE8               	decfsz	wreg,f,c
  9010  0039F4  D7FE               	bra	u4767
  9011  0039F6  2E01               	decfsz	??_Comando_LCD^0,f,c
  9012  0039F8  D7FC               	bra	u4767
  9013  0039FA  D000               	nop2	
  9014  0039FC  0012               	return		;funcret
  9015  0039FE                     __end_of_Comando_LCD:
  9016                           	callstack 0
  9017                           
  9018                           	psect	rparam
  9019  0000                     
  9020                           	psect	idloc
  9021                           
  9022                           ;Config register IDLOC0 @ 0x200000
  9023                           ;	unspecified, using default values
  9024  200000                     	org	2097152
  9025  200000  FF                 	db	255
  9026                           
  9027                           ;Config register IDLOC1 @ 0x200001
  9028                           ;	unspecified, using default values
  9029  200001                     	org	2097153
  9030  200001  FF                 	db	255
  9031                           
  9032                           ;Config register IDLOC2 @ 0x200002
  9033                           ;	unspecified, using default values
  9034  200002                     	org	2097154
  9035  200002  FF                 	db	255
  9036                           
  9037                           ;Config register IDLOC3 @ 0x200003
  9038                           ;	unspecified, using default values
  9039  200003                     	org	2097155
  9040  200003  FF                 	db	255
  9041                           
  9042                           ;Config register IDLOC4 @ 0x200004
  9043                           ;	unspecified, using default values
  9044  200004                     	org	2097156
  9045  200004  FF                 	db	255
  9046                           
  9047                           ;Config register IDLOC5 @ 0x200005
  9048                           ;	unspecified, using default values
  9049  200005                     	org	2097157
  9050  200005  FF                 	db	255
  9051                           
  9052                           ;Config register IDLOC6 @ 0x200006
  9053                           ;	unspecified, using default values
  9054  200006                     	org	2097158
  9055  200006  FF                 	db	255
  9056                           
  9057                           ;Config register IDLOC7 @ 0x200007
  9058                           ;	unspecified, using default values
  9059  200007                     	org	2097159
  9060  200007  FF                 	db	255
  9061                           
  9062                           	psect	config
  9063                           
  9064                           ;Config register CONFIG1L @ 0x300000
  9065                           ;	unspecified, using default values
  9066                           ;	PLL Prescaler Selection bits
  9067                           ;	PLLDIV = 0x0, unprogrammed default
  9068                           ;	System Clock Postscaler Selection bits
  9069                           ;	CPUDIV = 0x0, unprogrammed default
  9070                           ;	USB Clock Selection bit (used in Full-Speed USB mode only; UCFG:FSEN = 1)
  9071                           ;	USBDIV = 0x0, unprogrammed default
  9072  300000                     	org	3145728
  9073  300000  00                 	db	0
  9074                           
  9075                           ;Config register CONFIG1H @ 0x300001
  9076                           ;	unspecified, using default values
  9077                           ;	Oscillator Selection bits
  9078                           ;	FOSC = 0x5, unprogrammed default
  9079                           ;	Fail-Safe Clock Monitor Enable bit
  9080                           ;	FCMEN = 0x0, unprogrammed default
  9081                           ;	Internal/External Oscillator Switchover bit
  9082                           ;	IESO = 0x0, unprogrammed default
  9083  300001                     	org	3145729
  9084  300001  05                 	db	5
  9085                           
  9086                           ;Config register CONFIG2L @ 0x300002
  9087                           ;	Power-up Timer Enable bit
  9088                           ;	PWRT = OFF, PWRT disabled
  9089                           ;	Brown-out Reset Enable bits
  9090                           ;	BOR = ON, Brown-out Reset enabled in hardware only (SBOREN is disabled)
  9091                           ;	Brown-out Reset Voltage bits
  9092                           ;	BORV = 3, Minimum setting 2.05V
  9093                           ;	USB Voltage Regulator Enable bit
  9094                           ;	VREGEN = OFF, USB voltage regulator disabled
  9095  300002                     	org	3145730
  9096  300002  1F                 	db	31
  9097                           
  9098                           ;Config register CONFIG2H @ 0x300003
  9099                           ;	Watchdog Timer Enable bit
  9100                           ;	WDT = OFF, WDT disabled (control is placed on the SWDTEN bit)
  9101                           ;	Watchdog Timer Postscale Select bits
  9102                           ;	WDTPS = 32768, 1:32768
  9103  300003                     	org	3145731
  9104  300003  1E                 	db	30
  9105                           
  9106                           ; Padding undefined space
  9107  300004                     	org	3145732
  9108  300004  FF                 	db	255
  9109                           
  9110                           ;Config register CONFIG3H @ 0x300005
  9111                           ;	CCP2 MUX bit
  9112                           ;	CCP2MX = ON, CCP2 input/output is multiplexed with RC1
  9113                           ;	PORTB A/D Enable bit
  9114                           ;	PBADEN = OFF, PORTB<4:0> pins are configured as digital I/O on Reset
  9115                           ;	Low-Power Timer 1 Oscillator Enable bit
  9116                           ;	LPT1OSC = OFF, Timer1 configured for higher power operation
  9117                           ;	MCLR Pin Enable bit
  9118                           ;	MCLRE = OFF, RE3 input pin enabled; MCLR pin disabled
  9119  300005                     	org	3145733
  9120  300005  01                 	db	1
  9121                           
  9122                           ;Config register CONFIG4L @ 0x300006
  9123                           ;	Stack Full/Underflow Reset Enable bit
  9124                           ;	STVREN = ON, Stack full/underflow will cause Reset
  9125                           ;	Single-Supply ICSP Enable bit
  9126                           ;	LVP = ON, Single-Supply ICSP enabled
  9127                           ;	Dedicated In-Circuit Debug/Programming Port (ICPORT) Enable bit
  9128                           ;	ICPRT = OFF, ICPORT disabled
  9129                           ;	Extended Instruction Set Enable bit
  9130                           ;	XINST = OFF, Instruction set extension and Indexed Addressing mode disabled (Legacy mo
      +                          de)
  9131                           ;	Background Debugger Enable bit
  9132                           ;	DEBUG = 0x1, unprogrammed default
  9133  300006                     	org	3145734
  9134  300006  85                 	db	133
  9135                           
  9136                           ; Padding undefined space
  9137  300007                     	org	3145735
  9138  300007  FF                 	db	255
  9139                           
  9140                           ;Config register CONFIG5L @ 0x300008
  9141                           ;	Code Protection bit
  9142                           ;	CP0 = OFF, Block 0 (000800-001FFFh) is not code-protected
  9143                           ;	Code Protection bit
  9144                           ;	CP1 = OFF, Block 1 (002000-003FFFh) is not code-protected
  9145                           ;	Code Protection bit
  9146                           ;	CP2 = OFF, Block 2 (004000-005FFFh) is not code-protected
  9147                           ;	Code Protection bit
  9148                           ;	CP3 = OFF, Block 3 (006000-007FFFh) is not code-protected
  9149  300008                     	org	3145736
  9150  300008  0F                 	db	15
  9151                           
  9152                           ;Config register CONFIG5H @ 0x300009
  9153                           ;	Boot Block Code Protection bit
  9154                           ;	CPB = OFF, Boot block (000000-0007FFh) is not code-protected
  9155                           ;	Data EEPROM Code Protection bit
  9156                           ;	CPD = OFF, Data EEPROM is not code-protected
  9157  300009                     	org	3145737
  9158  300009  C0                 	db	192
  9159                           
  9160                           ;Config register CONFIG6L @ 0x30000A
  9161                           ;	Write Protection bit
  9162                           ;	WRT0 = OFF, Block 0 (000800-001FFFh) is not write-protected
  9163                           ;	Write Protection bit
  9164                           ;	WRT1 = OFF, Block 1 (002000-003FFFh) is not write-protected
  9165                           ;	Write Protection bit
  9166                           ;	WRT2 = OFF, Block 2 (004000-005FFFh) is not write-protected
  9167                           ;	Write Protection bit
  9168                           ;	WRT3 = OFF, Block 3 (006000-007FFFh) is not write-protected
  9169  30000A                     	org	3145738
  9170  30000A  0F                 	db	15
  9171                           
  9172                           ;Config register CONFIG6H @ 0x30000B
  9173                           ;	Configuration Register Write Protection bit
  9174                           ;	WRTC = OFF, Configuration registers (300000-3000FFh) are not write-protected
  9175                           ;	Boot Block Write Protection bit
  9176                           ;	WRTB = OFF, Boot block (000000-0007FFh) is not write-protected
  9177                           ;	Data EEPROM Write Protection bit
  9178                           ;	WRTD = OFF, Data EEPROM is not write-protected
  9179  30000B                     	org	3145739
  9180  30000B  E0                 	db	224
  9181                           
  9182                           ;Config register CONFIG7L @ 0x30000C
  9183                           ;	Table Read Protection bit
  9184                           ;	EBTR0 = OFF, Block 0 (000800-001FFFh) is not protected from table reads executed in ot
      +                          her blocks
  9185                           ;	Table Read Protection bit
  9186                           ;	EBTR1 = OFF, Block 1 (002000-003FFFh) is not protected from table reads executed in ot
      +                          her blocks
  9187                           ;	Table Read Protection bit
  9188                           ;	EBTR2 = OFF, Block 2 (004000-005FFFh) is not protected from table reads executed in ot
      +                          her blocks
  9189                           ;	Table Read Protection bit
  9190                           ;	EBTR3 = OFF, Block 3 (006000-007FFFh) is not protected from table reads executed in ot
      +                          her blocks
  9191  30000C                     	org	3145740
  9192  30000C  0F                 	db	15
  9193                           
  9194                           ;Config register CONFIG7H @ 0x30000D
  9195                           ;	Boot Block Table Read Protection bit
  9196                           ;	EBTRB = OFF, Boot block (000000-0007FFh) is not protected from table reads executed in
      +                           other blocks
  9197  30000D                     	org	3145741
  9198  30000D  40                 	db	64
  9199                           tosu	equ	0xFFF
  9200                           tosh	equ	0xFFE
  9201                           tosl	equ	0xFFD
  9202                           stkptr	equ	0xFFC
  9203                           pclatu	equ	0xFFB
  9204                           pclath	equ	0xFFA
  9205                           pcl	equ	0xFF9
  9206                           tblptru	equ	0xFF8
  9207                           tblptrh	equ	0xFF7
  9208                           tblptrl	equ	0xFF6
  9209                           tablat	equ	0xFF5
  9210                           prodh	equ	0xFF4
  9211                           prodl	equ	0xFF3
  9212                           indf0	equ	0xFEF
  9213                           postinc0	equ	0xFEE
  9214                           postdec0	equ	0xFED
  9215                           preinc0	equ	0xFEC
  9216                           plusw0	equ	0xFEB
  9217                           fsr0h	equ	0xFEA
  9218                           fsr0l	equ	0xFE9
  9219                           wreg	equ	0xFE8
  9220                           indf1	equ	0xFE7
  9221                           postinc1	equ	0xFE6
  9222                           postdec1	equ	0xFE5
  9223                           preinc1	equ	0xFE4
  9224                           plusw1	equ	0xFE3
  9225                           fsr1h	equ	0xFE2
  9226                           fsr1l	equ	0xFE1
  9227                           bsr	equ	0xFE0
  9228                           indf2	equ	0xFDF
  9229                           postinc2	equ	0xFDE
  9230                           postdec2	equ	0xFDD
  9231                           preinc2	equ	0xFDC
  9232                           plusw2	equ	0xFDB
  9233                           fsr2h	equ	0xFDA
  9234                           fsr2l	equ	0xFD9
  9235                           status	equ	0xFD8

Data Sizes:
    Strings     91
    Constant    0
    Data        7
    BSS         96
    Persistent  0
    Stack       0

Auto Spaces:
    Space          Size  Autos    Used
    COMRAM           95     95      95
    BANK0           160     99     122
    BANK1           256      0      80
    BANK2           256      0       0
    BANK3           256      0       0
    BANK4           256      0       0
    BANK5           256      0       0
    BANK6           256      0       0
    BANK7           256      0       0

Pointer List with Targets:

    strncmp@_r	PTR const unsigned char  size(2) Largest target is 3
		 -> STR_18(CODE[3]), 

    strncmp@r	PTR const unsigned char  size(2) Largest target is 3
		 -> STR_18(CODE[3]), 

    strncmp@_l	PTR const unsigned char  size(2) Largest target is 3
		 -> vfpfcnvrt@ct(COMRAM[3]), 

    strncmp@l	PTR const unsigned char  size(2) Largest target is 3
		 -> vfpfcnvrt@ct(COMRAM[3]), 

    strlen@s	PTR const unsigned char  size(2) Largest target is 80
		 -> dbuf(BANK1[80]), 

    strlen@a	PTR const unsigned char  size(2) Largest target is 80
		 -> dbuf(BANK1[80]), 

    strcpy@dest	PTR unsigned char  size(2) Largest target is 80
		 -> dbuf(BANK1[80]), 

    strcpy@d	PTR unsigned char  size(2) Largest target is 80
		 -> dbuf(BANK1[80]), 

    strcpy@src	PTR const unsigned char  size(2) Largest target is 80
		 -> STR_13(CODE[4]), STR_12(CODE[4]), STR_9(CODE[4]), STR_8(CODE[4]), 
		 -> dbuf(BANK1[80]), 

    strcpy@s	PTR const unsigned char  size(2) Largest target is 80
		 -> STR_13(CODE[4]), STR_12(CODE[4]), STR_9(CODE[4]), STR_8(CODE[4]), 
		 -> dbuf(BANK1[80]), 

    fputs@s	PTR const unsigned char  size(2) Largest target is 80
		 -> dbuf(BANK1[80]), 

    fputs@fp	PTR struct _IO_FILE size(2) Largest target is 11
		 -> sprintf@f(BANK0[11]), 

    fputc@fp...source	PTR const unsigned char  size(2) Largest target is 0

    fputc@fp...buffer	PTR unsigned char  size(2) Largest target is 0

    fputc@fp	PTR struct _IO_FILE size(2) Largest target is 11
		 -> sprintf@f(BANK0[11]), 

    atoi@s	PTR const unsigned char  size(2) Largest target is 5
		 -> STR_5(CODE[5]), 

    vfprintf@ap	PTR PTR void  size(2) Largest target is 2
		 -> sprintf@ap(BANK0[2]), 

    vfprintf@fp	PTR struct _IO_FILE size(2) Largest target is 11
		 -> sprintf@f(BANK0[11]), 

    vfprintf@fmt	PTR const unsigned char  size(2) Largest target is 5
		 -> STR_5(CODE[5]), 

    vfprintf@cfmt	PTR unsigned char  size(2) Largest target is 5
		 -> STR_5(CODE[5]), 

    vfpfcnvrt@fp	PTR struct _IO_FILE size(2) Largest target is 11
		 -> sprintf@f(BANK0[11]), 

    vfpfcnvrt@ap	PTR PTR void  size(2) Largest target is 2
		 -> sprintf@ap(BANK0[2]), 

    vfpfcnvrt@fmt	PTR PTR unsigned char  size(2) Largest target is 2
		 -> vfprintf@cfmt(COMRAM[2]), 

    efgtoa@fp	PTR struct _IO_FILE size(2) Largest target is 11
		 -> sprintf@f(BANK0[11]), 

    sp__strcpy	PTR unsigned char  size(2) Largest target is 80
		 -> dbuf(BANK1[80]), 

    pad@fp	PTR struct _IO_FILE size(2) Largest target is 11
		 -> sprintf@f(BANK0[11]), 

    pad@buf	PTR unsigned char  size(2) Largest target is 80
		 -> dbuf(BANK1[80]), 

    sprintf@fmt	PTR const unsigned char  size(2) Largest target is 5
		 -> STR_5(CODE[5]), 

    sprintf@s	PTR unsigned char  size(2) Largest target is 10
		 -> potentiometer_temperature@temperatura_texto(BANK0[10]), 

    sprintf@ap	PTR void [1] size(2) Largest target is 2
		 -> ?_sprintf(BANK0[2]), 

    S916$source	PTR const unsigned char  size(2) Largest target is 0

    f...source	PTR const unsigned char  size(2) Largest target is 0

    S916$buffer	PTR unsigned char  size(2) Largest target is 0

    f...buffer	PTR unsigned char  size(2) Largest target is 0

    printDisplayLCD@text	PTR unsigned char  size(2) Largest target is 13
		 -> STR_7(CODE[10]), STR_6(CODE[12]), potentiometer_temperature@temperatura_texto(BANK0[10]), STR_4(CODE[8]), 
		 -> STR_3(CODE[13]), STR_2(CODE[13]), STR_1(CODE[11]), 

    Escreve_LCD@caracter	PTR unsigned char  size(2) Largest target is 13
		 -> STR_7(CODE[10]), STR_6(CODE[12]), potentiometer_temperature@temperatura_texto(BANK0[10]), STR_4(CODE[8]), 
		 -> STR_3(CODE[13]), STR_2(CODE[13]), STR_1(CODE[11]), 


Critical Paths under _main in COMRAM

    _turnon_coolerandheater->_printDisplayLCD
    _sprintf->_vfprintf
    _vfprintf->_vfpfcnvrt
    _vfpfcnvrt->_efgtoa
    _efgtoa->___flsub
    _tolower->_isupper
    _pad->_fputs
    _fputs->_fputc
    _floorf->___fldiv
    ___flsub->___fladd
    ___fladd->___flmul
    ___flmul->___xxtofl
    ___flge->___flmul
    _atoi->_isspace
    _printDisplayLCD->_Posiciona_LCD
    _Posiciona_LCD->_Comando_LCD
    _Escreve_LCD->_Escreve_C_LCD
    _Inicializa_LCD->_Comando_LCD

Critical Paths under _main in BANK0

    _main->_potentiometer_temperature
    _potentiometer_temperature->_sprintf
    _sprintf->_vfprintf
    _vfpfcnvrt->_efgtoa

Critical Paths under _main in BANK1

    None.

Critical Paths under _main in BANK2

    None.

Critical Paths under _main in BANK3

    None.

Critical Paths under _main in BANK4

    None.

Critical Paths under _main in BANK5

    None.

Critical Paths under _main in BANK6

    None.

Critical Paths under _main in BANK7

    None.

Call Graph Tables:

 ---------------------------------------------------------------------------------
 (Depth) Function   	        Calls       Base Space   Used Autos Params    Refs
 ---------------------------------------------------------------------------------
 (0) _main                                                 2     2      0   41869
                                             97 BANK0      2     2      0
                        _Comando_LCD
                     _Inicializa_LCD
          _potentiometer_temperature
                    _printDisplayLCD
            _turnoff_coolerandheater
             _turnon_coolerandheater
 ---------------------------------------------------------------------------------
 (1) _turnon_coolerandheater                               2     2      0    2085
                                             15 COMRAM     2     2      0
                        _Comando_LCD
                    _printDisplayLCD
 ---------------------------------------------------------------------------------
 (1) _turnoff_coolerandheater                              0     0      0       0
 ---------------------------------------------------------------------------------
 (1) _potentiometer_temperature                           20    20      0   37631
                                             77 BANK0     20    20      0
                        _Comando_LCD
                     _Inicializa_ADC
                            _Ler_ADC
                            ___fladd
                             ___fleq
                            ___flmul
                           ___xxtofl
                    _printDisplayLCD
                            _sprintf
 ---------------------------------------------------------------------------------
 (2) _sprintf                                             23    15      8   28636
                                             56 BANK0     21    13      8
                           _vfprintf
 ---------------------------------------------------------------------------------
 (3) _vfprintf                                             8     2      6   28279
                                             93 COMRAM     2     2      0
                                             50 BANK0      6     0      6
                          _vfpfcnvrt
 ---------------------------------------------------------------------------------
 (4) _vfpfcnvrt                                           44    38      6   27907
                                             75 COMRAM    18    12      6
                               _atoi
                             _efgtoa
                              _fputc
                            _isdigit
                            _isupper
                            _strncmp
                            _tolower
 ---------------------------------------------------------------------------------
 (5) _strncmp                                             11     5      6     453
                                              0 COMRAM    11     5      6
 ---------------------------------------------------------------------------------
 (5) _efgtoa                                              62    55      7   22752
                                             63 COMRAM    12     5      7
                                              0 BANK0     50    50      0
                            ___awdiv
                            ___awmod
                            ___fladd
                            ___fldiv
                             ___fleq
                             ___flge
                            ___flmul
                            ___flneg
                            ___flsub
                            ___fltol
                      ___fpclassifyf
                             _floorf
                            _isupper
                                _pad
                             _strcpy
                            _tolower
 ---------------------------------------------------------------------------------
 (5) _tolower                                              6     4      2     920
                                              6 COMRAM     6     4      2
                            _isupper
 ---------------------------------------------------------------------------------
 (6) _isupper                                              6     4      2     465
                                              0 COMRAM     6     4      2
 ---------------------------------------------------------------------------------
 (6) _strcpy                                              10     6      4     856
                                              0 COMRAM    10     6      4
 ---------------------------------------------------------------------------------
 (6) _pad                                                 11     5      6    3165
                                             16 COMRAM    11     5      6
                              _fputc
                              _fputs
                             _strlen
 ---------------------------------------------------------------------------------
 (7) _strlen                                               4     2      2     166
                                              0 COMRAM     4     2      2
 ---------------------------------------------------------------------------------
 (7) _fputs                                                7     3      4    1235
                                              9 COMRAM     7     3      4
                              _fputc
 ---------------------------------------------------------------------------------
 (5) _fputc                                                9     5      4     834
                                              0 COMRAM     9     5      4
                              _putch
 ---------------------------------------------------------------------------------
 (6) _putch                                                1     1      0       0
 ---------------------------------------------------------------------------------
 (6) _floorf                                              20    16      4     490
                                             25 COMRAM    20    16      4
                            ___fldiv (ARG)
 ---------------------------------------------------------------------------------
 (6) ___fpclassifyf                                       14    10      4     287
                                              0 COMRAM    14    10      4
 ---------------------------------------------------------------------------------
 (6) ___fltol                                             10     6      4     381
                                              0 COMRAM    10     6      4
 ---------------------------------------------------------------------------------
 (6) ___flsub                                              8     0      8    3041
                                             55 COMRAM     8     0      8
                            ___fladd
                            ___flmul (ARG)
 ---------------------------------------------------------------------------------
 (7) ___fladd                                             16     8      8    2566
                                             39 COMRAM    16     8      8
                            ___flmul (ARG)
 ---------------------------------------------------------------------------------
 (6) ___flneg                                              4     0      4     121
                                              0 COMRAM     4     0      4
 ---------------------------------------------------------------------------------
 (6) ___flmul                                             25    17      8    2960
                                             14 COMRAM    25    17      8
                           ___xxtofl (ARG)
 ---------------------------------------------------------------------------------
 (6) ___flge                                              12     4      8     790
                                             39 COMRAM    12     4      8
                            ___flmul (ARG)
 ---------------------------------------------------------------------------------
 (6) ___fleq                                              12     4      8     798
                                              0 COMRAM    12     4      8
 ---------------------------------------------------------------------------------
 (6) ___fldiv                                             25    17      8    2007
                                              0 COMRAM    25    17      8
 ---------------------------------------------------------------------------------
 (6) ___awmod                                              6     2      4     448
                                              0 COMRAM     6     2      4
 ---------------------------------------------------------------------------------
 (6) ___awdiv                                              8     4      4     452
                                              0 COMRAM     8     4      4
 ---------------------------------------------------------------------------------
 (5) _atoi                                                10     8      2    1080
                                              7 COMRAM    10     8      2
                             ___wmul
                            _isdigit
                            _isspace
 ---------------------------------------------------------------------------------
 (6) _isspace                                              7     5      2     207
                                              0 COMRAM     7     5      2
 ---------------------------------------------------------------------------------
 (5) _isdigit                                              6     4      2     237
                                              0 COMRAM     6     4      2
 ---------------------------------------------------------------------------------
 (6) ___wmul                                               6     2      4     311
                                              0 COMRAM     6     2      4
 ---------------------------------------------------------------------------------
 (2) _printDisplayLCD                                      8     2      6    2063
                                              7 COMRAM     8     2      6
                        _Escreve_LCD
                      _Posiciona_LCD
 ---------------------------------------------------------------------------------
 (3) _Posiciona_LCD                                        5     4      1     258
                                              2 COMRAM     5     4      1
                        _Comando_LCD
 ---------------------------------------------------------------------------------
 (3) _Escreve_LCD                                          3     1      2     143
                                              2 COMRAM     3     1      2
                      _Escreve_C_LCD
 ---------------------------------------------------------------------------------
 (4) _Escreve_C_LCD                                        2     2      0      22
                                              0 COMRAM     2     2      0
 ---------------------------------------------------------------------------------
 (2) ___xxtofl                                            14    10      4     398
                                              0 COMRAM    14    10      4
 ---------------------------------------------------------------------------------
 (2) _Ler_ADC                                              6     4      2      46
                                              0 COMRAM     6     4      2
 ---------------------------------------------------------------------------------
 (2) _Inicializa_ADC                                       0     0      0       0
 ---------------------------------------------------------------------------------
 (1) _Inicializa_LCD                                       2     2      0      68
                                              2 COMRAM     2     2      0
                        _Comando_LCD
 ---------------------------------------------------------------------------------
 (4) _Comando_LCD                                          2     2      0      22
                                              0 COMRAM     2     2      0
 ---------------------------------------------------------------------------------
 Estimated maximum stack depth 7
 ---------------------------------------------------------------------------------

 Call Graph Graphs:

 _main (ROOT)
   _Comando_LCD
   _Inicializa_LCD
     _Comando_LCD
   _potentiometer_temperature
     _Comando_LCD
     _Inicializa_ADC
     _Ler_ADC
     ___fladd
       ___flmul (ARG)
         ___xxtofl (ARG)
     ___fleq
     ___flmul
     ___xxtofl
     _printDisplayLCD
       _Escreve_LCD
         _Escreve_C_LCD
       _Posiciona_LCD
         _Comando_LCD
     _sprintf
       _vfprintf
         _vfpfcnvrt
           _atoi
             ___wmul
             _isdigit
             _isspace
           _efgtoa
             ___awdiv
             ___awmod
             ___fladd
             ___fldiv
             ___fleq
             ___flge
               ___flmul (ARG)
             ___flmul
             ___flneg
             ___flsub
               ___fladd
               ___flmul (ARG)
             ___fltol
             ___fpclassifyf
             _floorf
               ___fldiv (ARG)
             _isupper
             _pad
               _fputc
                 _putch
               _fputs
                 _fputc
               _strlen
             _strcpy
             _tolower
               _isupper
           _fputc
           _isdigit
           _isupper
           _strncmp
           _tolower
   _printDisplayLCD
   _turnoff_coolerandheater
   _turnon_coolerandheater
     _Comando_LCD
     _printDisplayLCD

 Address spaces:
Name               Size   Autos  Total    Cost      Usage
BIGRAM             7FF      0       0      25        0.0%
EEDATA             100      0       0       0        0.0%
BITBANK7           100      0       0      18        0.0%
BANK7              100      0       0      19        0.0%
BITBANK6           100      0       0      16        0.0%
BANK6              100      0       0      17        0.0%
BITBANK5           100      0       0      14        0.0%
BANK5              100      0       0      15        0.0%
BITBANK4           100      0       0      12        0.0%
BANK4              100      0       0      13        0.0%
BITBANK3           100      0       0      10        0.0%
BANK3              100      0       0      11        0.0%
BITBANK2           100      0       0       8        0.0%
BANK2              100      0       0       9        0.0%
BITBANK1           100      0       0       6        0.0%
BANK1              100      0      50       7       31.2%
BITBANK0            A0      0       0       4        0.0%
BANK0               A0     63      7A       5       76.2%
BITCOMRAM           5F      0       0       0        0.0%
COMRAM              5F     5F      5F       1      100.0%
BITBIGSFRhhh        3B      0       0      20        0.0%
BITBIGSFRhlh        29      0       0      21        0.0%
BITBIGSFRll         21      0       0      23        0.0%
BITBIGSFRhlll        D      0       0      22        0.0%
BIGSFR               0      0       0     200        0.0%
BITSFR               0      0       0     200        0.0%
SFR                  0      0       0     200        0.0%
STACK                0      0       0       2        0.0%
NULL                 0      0       0       0        0.0%
ABS                  0      0     129      24        0.0%
DATA                 0      0     129       3        0.0%
CODE                 0      0       0       0        0.0%


Microchip Technology PIC18 Macro Assembler V2.36 build 20220127204148 
Symbol Table                                                                                   Mon May 30 15:22:36 2022

                              ___fldiv@aexp 0019                                ___fldiv@bexp 0018  
                              ___fldiv@sign 0011                              ?_Escreve_C_LCD 0001  
                                        l61 3896                                          l47 39FC  
                                        l81 39A8                                          l58 34B4  
                                        l90 3584                                          l75 3646  
                                        l83 39B6                                          l67 3522  
                                        l84 39D0                                          l93 3A42  
                                        l78 3A34                                          l87 39A4  
                                        l99 2A58                                ___awdiv@sign 0006  
                       ___wmul@multiplicand 0003                     ?_turnon_coolerandheater 0001  
                                       l113 3A22                                         l105 2F5E  
                                       l410 2CB4                                         l344 32D4  
                                       l700 233E                                         l372 342E  
                                       l357 3384                                         l383 2DB8  
                                       l641 165A                                         l706 23C0  
                                       l378 2D72                                         l650 192A  
                                       l642 1648                                         l731 2180  
                                       l387 3906                                         l643 160E  
                                       l708 2438                                         l709 2426  
                                       l734 2012                                         l727 1E1C  
                                       l744 2142                                         l736 208A  
                                       l832 3192                                         l737 2078  
                                       l658 1774                                         l771 28E0  
                                       l667 1844                                         l683 37D2  
                                       l835 31D4                                         l668 1832  
                                       l837 3210                                         l853 146A  
                                       l782 2878                                         l950 35DE  
                                       l775 281C                                         l695 251A  
                                       l951 35E6                                         l791 36F4  
                                       l768 2784                                         l944 1CA0  
                                       l697 237A                                         l961 2EB6  
                                       l939 1D56                                         l869 0C1A  
                                       l984 2BA6                                         l993 272C  
                                       l897 105A                                         l987 2BAE  
                                       l996 2670                                         _pad 314C  
                              ___awmod@sign 0006                                         wreg 000FE8  
                              ___flmul@aexp 0020                                ___flmul@bexp 0021  
                             ??_Escreve_LCD 0005                                ___flmul@sign 001B  
                              ___flmul@temp 0026                                ___flmul@prod 0022  
                        Comando_LCD@comando 0002                                ___fltol@exp1 000A  
                                      l1003 393E                                        l1011 3746  
                                      l1032 314A                                        l1040 3816  
                                      l1017 38CE                                        l1043 3A44  
                                      l1055 3974                                        l1072 378C  
                                      l3001 1DD6                                        l1049 36A2  
                                      l3011 1E2C                                        l3003 1DE6  
                                      l1059 3080                                        l3101 216C  
                                      l3021 1E66                                        l3013 1E3C  
                                      l3005 1DF6                                        l1069 3784  
                                      l3103 2170                                        l3031 1EB8  
                                      l3023 1E7C                                        l3007 1E06  
                                      l3121 3230                                        l3113 3212  
                                      l3201 3402                                        l3041 1EFE  
                                      l3033 1EC6                                        l3025 1E88  
                                      l3017 1E50                                        l3009 1E0C  
                                      l4001 3552                                        l3131 3264  
                                      l3123 323E                                        l3115 3216  
                                      l3203 3426                                        l3211 2CE4  
                                      l3051 1F6C                                        l3043 1F18  
                                      l3035 1ED2                                        l3027 1EA0  
                                      l3019 1E5C                                        l3107 378E  
                                      l4011 28FE                                        l4003 356E  
                                      l3141 329E                                        l3133 326C  
                                      l3125 3246                                        l3117 3224  
                                      l3205 342C                                        l3221 2D52  
                                      l3213 2CF4                                        l3061 2002  
                                      l3053 1F96                                        l3045 1F28  
                                      l3037 1EE2                                        l3029 1EAC  
                                      l3109 379E                                        l3301 31F8  
                                      l4021 29E4                                        l4013 291A  
                                      l4005 28E2                                        l4111 2AF6  
                                      l3151 32C4                                        l3143 32A6  
                                      l3135 3274                                        l3127 324A  
                                      l3119 322C                                        l3223 2D60  
                                      l3215 2D22                                        l3071 2042  
                                      l3063 2010                                        l3055 1FCC  
                                      l3047 1F44                                        l3039 1EEE  
                                      l3231 38D0                                        l3311 2E40  
                                      l4023 2A0A                                        l4015 293A  
                                      l4007 28F4                                        l4031 2ED2  
                                      l4113 3478                                        l3153 32CC  
                                      l3145 32A8                                        l3137 3282  
                                      l3129 3252                                        l3161 32E8  
                                      l3225 2DB0                                        l3217 2D32  
                                      l3209 2CB6                                        l3081 20B4  
                                      l3073 2070                                        l3065 2022  
                                      l3057 1FDA                                        l3049 1F50  
                                      l3233 38E6                                        l3241 2BC6  
                                      l3313 2E4C                                        l3305 2DBA  
                                      l2601 30B0                                        l3401 08D6  
                                      l4017 2946                                        l4025 2A26  
                                      l4009 28FA                                        l4041 2EE4  
                                      l4033 2ED4                                        l3147 32AE  
                                      l3139 3288                                        l3171 331C  
                                      l3163 32F0                                        l3227 2DB6  
                                      l3219 2D40                                        l3091 212A  
                                      l3083 20DE                                        l3067 2030  
                                      l3059 1FF8                                        l3235 38F6  
                                      l2611 1478                                        l3251 2C16  
                                      l3323 2EAE                                        l3307 2DDA  
                                      l2603 30CE                                        l3331 3748  
                                      l3411 090E                                        l3403 08E4  
                                      l4019 298C                                        l4051 2F02  
                                      l4043 2EE8                                        l4035 2ED6  
                                      l4027 2EB8                                        l3149 32B4  
                                      l3181 3358                                        l3173 3324  
                                      l3165 32F4                                        l3157 32D6  
                                      l3093 2146                                        l3077 209A  
                                      l3085 20E2                                        l3069 2034  
                                      l2701 162C                                        l2621 14B8  
                                      l2613 1486                                        l3261 2C40  
                                      l3253 2C1A                                        l3245 2BDA  
                                      l3309 2E18                                        l3317 2E58  
                                      l3341 251C                                        l2605 3104  
                                      l3501 0CB0                                        l3421 093E  
                                      l3413 0912                                        l3405 08F6  
                                      l4061 2F6C                                        l4053 2F1C  
                                      l4045 2EF6                                        l4037 2EE0  
                                      l4029 2ED0                                        l3183 335E  
                                      l3175 332C                                        l3167 3302  
                                      l3159 32DA                                        l3095 2156  
                                      l3087 20FC                                        l3079 20A6  
                                      l2711 1678                                        l2703 163A  
                                      l2631 14EA                                        l2623 14BA  
                                      l2615 1488                                        l3271 2C68  
                                      l3263 2C4A                                        l3255 2C28  
                                      l3247 2C04                                        l3239 2BB0  
                                      l3319 2E6A                                        l3343 253C  
                                      l3327 3648                                        l3335 3748  
                                      l3511 0CF8                                        l3503 0CC2  
                                      l3423 096A                                        l3407 0902  
                                      l3415 0918                                        l4063 2F6E  
                                      l4055 2F22                                        l4047 2EFA  
                                      l4039 2EE2                                        l3177 333A  
                                      l3185 3364                                        l3169 330A  
                                      l3193 3386                                        l3097 2164  
                                      l3089 2110                                        l2801 1904  
                                      l2721 16B8                                        l2705 163C  
                                      l2641 1512                                        l2633 14EC  
                                      l2617 1498                                        l2625 14C2  
                                      l2609 146C                                        l3273 2C74  
                                      l3265 2C54                                        l3249 2C06  
                                      l3361 26E4                                        l3353 2624  
                                      l3345 2592                                        l3329 3658  
                                      l3337 3776                                        l3601 119C  
                                      l3521 0D40                                        l3513 0D06  
                                      l3505 0CD4                                        l3441 0A26  
                                      l3425 0988                                        l3433 09D4  
                                      l3409 090A                                        l4065 2F74  
                                      l4057 2F3E                                        l4049 2EFE  
                                      l3187 3374                                        l3179 3350  
                                      l3195 33B4                                        l3099 2166  
                                      l2803 190A                                        l2731 16E2  
                                      l2723 16C4                                        l2715 168C  
                                      l2707 1646                                        l2651 154C  
                                      l2643 1522                                        l2635 14F2  
                                      l2627 14D2                                        l2619 14A8  
                                      l3275 2C84                                        l3363 270C  
                                      l3355 2660                                        l3347 25A6  
                                      l2811 37D4                                        l3291 318A  
                                      l3283 314C                                        l3611 1244  
                                      l3603 11AE                                        l3531 0E54  
                                      l3523 0D50                                        l3515 0D1E  
                                      l3507 0CE2                                        l3443 0A44  
                                      l3451 0A62                                        l3427 09A2  
                                      l4067 2F90                                        l4059 2F40  
                                      l3381 3740                                        l3373 36F6  
                                      l3701 2AC8                                        l3189 337C  
                                      l2901 22E2                                        l3197 33C4  
                                      l2805 1918                                        l2741 1754  
                                      l2725 16C8                                        l2717 169C  
                                      l2709 1668                                        l2733 16E8  
                                      l2661 1578                                        l2653 155E  
                                      l2645 1532                                        l2637 1500  
                                      l2629 14D8                                        l3277 2C94  
                                      l3365 271C                                        l3349 25B4  
                                      l3357 2694                                        l2813 37E0  
                                      l2821 394C                                        l3293 319E  
                                      l3285 315C                                        l3621 129C  
                                      l3613 124C                                        l3605 11B2  
                                      l3541 0EF4                                        l3525 0D64  
                                      l3533 0E5A                                        l3517 0D30  
                                      l3509 0CE6                                        l3461 0AEC  
                                      l3453 0A7C                                        l3429 09AC  
                                      l4069 2F92                                        l3375 36FA  
                                      l3703 2AD0                                        l2911 232E  
                                      l2903 22F2                                        l3199 33F2  
                                      l2807 191A                                        l2751 17AE  
                                      l2735 170E                                        l2743 1764  
                                      l2727 16D6                                        l2719 16AA  
                                      l2671 158C                                        l2663 157C  
                                      l2655 156C                                        l2647 1534  
                                      l2639 1502                                        l3279 2CA4  
                                      l3359 26D0                                        l2815 37F2  
                                      l2823 3950                                        l3295 31B2  
                                      l3287 3170                                        l3631 12E0  
                                      l3623 12AA                                        l3607 11B8  
                                      l3615 1250                                        l3551 0FD0  
                                      l3543 0F26                                        l3535 0E78  
                                      l3527 0DC8                                        l3519 0D38  
                                      l3471 0BC4                                        l3463 0B46  
                                      l3439 09FA                                        l3391 0886  
                                      l2487 3A3E                                        l2833 39FE  
                                      l3369 3908                                        l3377 370E  
                                      l3713 2B42                                        l3705 2AD8  
                                      l2921 2378                                        l2913 233C  
                                      l2905 2302                                        l2841 218E  
                                      l2761 17DE                                        l2753 17B8  
                                      l2745 178A                                        l2737 1742  
                                      l2729 16D8                                        l2681 15A0  
                                      l2673 1590                                        l2665 1580  
                                      l2657 1570                                        l2649 153C  
                                      l2817 37F6                                        l2825 3968  
                                      l3297 31B6                                        l3289 317E  
                                      l3641 1316                                        l3633 12E8  
                                      l3625 12BA                                        l3617 126E  
                                      l3609 1210                                        l3561 1032  
                                      l3553 0FD6                                        l3545 0F36  
                                      l3537 0EAC                                        l3529 0E20  
                                      l3481 0C0E                                        l3473 0BC8  
                                      l3465 0B7A                                        l3457 0AB2  
                                      l3393 088E                                        l3385 085E  
                                      l3801 1AD8                                        l2835 3A1A  
                                      l3379 373C                                        l3715 2B78  
                                      l3707 2B0C                                        l2931 23BE  
                                      l2923 238A                                        l2915 2348  
                                      l2907 230A                                        l2851 21CE  
                                      l2843 219C                                        l2771 1806  
                                      l2763 17E2                                        l2755 17C6  
                                      l2747 179A                                        l2739 1744  
                                      l2691 15DA                                        l2683 15A4  
                                      l2675 1594                                        l2667 1584  
                                      l2659 1574                                        l2595 3082  
                                      l2819 3940                                        l3299 31E4  
                                      l3651 1372                                        l3643 131E  
                                      l3635 12F8                                        l3627 12BE  
                                      l3619 128A                                        l3571 10EA  
                                      l3563 1046                                        l3555 100A  
                                      l3547 0F46                                        l3539 0EDE  
                                      l3491 0C4A                                        l3475 0BDA  
                                      l3483 0C26                                        l3467 0B82  
                                      l3459 0AE6                                        l3395 08B2  
                                      l3387 0868                                        l3731 2FF0  
                                      l3723 2FAC                                        l3811 1B4E  
                                      l3803 1AE8                                        l3901 3A26  
                                      l3717 2B8A                                        l2941 241E  
                                      l2925 23A0                                        l2933 23D0  
                                      l2917 2366                                        l2909 231A  
                                      l2861 21F4                                        l2853 21D0  
                                      l2845 219E                                        l2781 1860  
                                      l2773 1814                                        l2765 17F2  
                                      l2757 17C8                                        l2693 15F6  
                                      l2685 15A8                                        l2677 1598  
                                      l2669 1588                                        l2597 3094  
                                      l2829 3898                                        l3661 13B2  
                                      l3653 137A                                        l3645 132A  
                                      l3637 1300                                        l3629 12CE  
                                      l3581 1136                                        l3573 10FC  
                                      l3565 1052                                        l3557 101E  
                                      l3549 0F7A                                        l3493 0C66  
                                      l3477 0BEC                                        l3469 0BB4  
                                      l3397 08BC                                        l3389 0878  
                                      l3733 3008                                        l3725 2FD6  
                                      l3813 1B7E                                        l3805 1B18  
                                      ?_pad 0011                                        l3751 39EA  
                                      l3743 39D4                                        l3903 3A32  
                                      l2951 248C                                        l2935 23DE  
                                      l2927 23A6                                        l2919 2368  
                                      l2871 2234                                        l2863 2202  
                                      l2847 21AE                                        l2855 21D8  
                                      l2839 2182                                        l2791 18CA  
                                      l2783 186E                                        l2775 182A  
                                      l2759 17D6                                        l2767 17F4  
                                      l2695 1606                                        l2679 159C  
                                      l2687 15AC                                        l2599 30A6  
                                      l3671 13EE                                        l3663 13C4  
                                      l3647 1330                                        l3655 1380  
                                      l3639 130E                                        l3591 116A  
                                      l3583 1144                                        l3575 110E  
                                      l3567 1076                                        l3559 1022  
                                      l3495 0C9C                                        l3479 0BF4  
                                      l3399 08C4                                        l3735 3024  
                                      l3823 1BFE                                        l3807 1B2A  
                                      l3753 39EC                                        l3745 39D6  
                                      l3905 39A6                                        l3761 3872  
                                      l3913 3976                                        l2961 24F6  
                                      l2945 2448                                        l2953 2490  
                                      l2937 23E2                                        l2929 23B0  
                                      l2881 2274                                        l2873 2236  
                                      l2865 2204                                        l2857 21E8  
                                      l2849 21BE                                        l2793 18EA  
                                      l2785 18A8                                        l2769 1802  
                                      l2697 161C                                        l2689 15B0  
                                      l3681 1434                                        l3665 13D0  
                                      l3657 1392                                        l3649 1356  
                                      l3593 117A                                        l3585 1154  
                                      l3577 111C                                        l3569 10DA  
                                      l3497 0CA4                                        l3489 0C38  
                                      l3737 3036                                        l3729 2FE2  
                                      l3825 1C3C                                        l3833 1CB4  
                                      l3809 1B40                                        l3817 1BAA  
                                      l3921 36B6                                        l3747 39DA  
                                      l3907 39BC                                        l3931 2730  
                                      l3763 3874                                        l3755 385C  
                                      l3915 3980                                        l3691 2A5A  
                                      l2963 24FA                                        l2955 24AA  
                                      l2947 2454                                        l2939 23F0  
                                      l2891 22A4                                        l2883 227C  
                                      l2867 2214                                        l2875 223E  
                                      l2859 21EE                                        l2795 18EE  
                                      l2779 1854                                        l2787 18AA  
                                      l2699 1628                                        l3683 1444  
                                      l3675 13F4                                        l3667 13D8  
                                      l3659 13AC                                        l3595 117E  
                                      l3587 1158                                        l3579 1124  
                                      l3499 0CA8                                        l3739 305E  
                                      l3851 1D44                                        l3835 1CD8  
                                      l3843 1D06                                        l3827 1C70  
                                      l3819 1BD8                                        l3771 1950  
                                      l3923 36BE                                        l3749 39DC  
                                      l3909 39C8                                        l3933 2740  
                                      l3765 3884                                        l3757 3860  
                                      l3861 343C                                        l3917 398C  
                                      l3693 2A6E                                        l2965 2508  
                                      l2957 24C0                                        l2949 2462  
                                      l2893 22A4                                        l2885 2280  
                                      l2877 224E                                        l2869 2224  
                                      l2981 1D72                                        l2797 18FC  
                                      l2789 18BA                                        l3685 144A  
                                      l3677 1420                                        l3669 13E8  
                                      l3597 1184                                        l3589 115E  
                                      l3845 1D14                                        l3837 1CE6  
                                      l3781 19A0                                        l3773 195E  
                                      l3925 36C6                                        l3951 2806  
                                      l3943 27BE                                        l3935 274E  
                                      l3767 3886                                        l3759 386E  
                                      l3863 3446                                        l3871 3464  
                                      l2967 250E                                        l2959 24DA  
                                      l2879 2264                                        l2991 1DAA  
                                      l2983 1D74                                        l2799 1902  
                                      l3679 142C                                        l3599 118A  
                                      l3839 1CFA                                        l3783 19AE  
                                      l3775 1970                                        l3927 36E2  
                                      l3919 36A4                                        l3961 2886  
                                      l3953 2812                                        l3945 27C6  
                                      l3937 2794                                        l3881 34B6  
                                      l3865 3450                                        l3873 349E  
                                      l3857 3432                                        l3697 2A72  
                                      l2969 2510                                        l2897 22B8  
                                      l2889 2294                                        l2993 1DBA  
                                      l2985 1D84                                        l2977 1D58  
                                      l3793 1A3A                                        l3785 19D2  
                                      l3777 1974                                        l3849 1D20  
                                      l3769 192C                                        l3971 28CE  
                                      l3963 2888                                        l3955 284E  
                                      l3947 27D2                                        l3939 27AA  
                                      l3883 34BA                                        l3875 34AE  
                                      l3867 345A                                        l3859 3436  
                                      l3699 2A8E                                        l2899 22D2  
                                      l2995 1DC0                                        l2987 1D94  
                                      l2979 1D64                                        l3787 1A0C  
                                      l3779 1998                                        l3795 1A78  
                                      l3891 3586                                        l3981 35FA  
                                      l3973 28D0                                        l3965 288C  
                                      l3957 285A                                        l3949 2804  
                                      l3885 34DE                                        l2997 1DC6  
                                      l2989 1DA4                                        l3797 1A98  
                                      l3789 1A2C                                        l3893 358E  
                                      l3983 3608                                        l3967 28B0  
                                      l3959 2868                                        l3887 34E2  
                                      l2999 1DD4                                        l3799 1AA8  
                                      l3895 359C                                        l3991 3524  
                                      l3985 361A                                        l3977 35E8  
                                      l3969 28C0                                        l3889 34F2  
                                      l3897 35C2                                        l3993 3526  
                                      l3987 361C                                        l3979 35F4  
                                      l3899 3A24                                        l3995 352E  
                                      l3989 362A                                        l3997 3530  
                                      l3999 3536                                        STR_1 0827  
                                      STR_2 0801                                        STR_3 080E  
                                      STR_4 083C                                        STR_5 0844  
                                      STR_6 081B                                        STR_7 0832  
                                      STR_8 0849                                        STR_9 0851  
                                      u3000 24AA                                        u3001 24A6  
                                      u3010 24DA                                        u3011 24D6  
                                      u3020 2508                                        u3100 1E3C  
                                      u3021 2504                                        u3101 1E38  
                                      u3110 1FB6                                        u3030 1D72  
                                      u3031 1D6E                                        u3200 212A  
                                      u3120 2010                                        u3040 1D84  
                                      u2400 14EA                                        u4000 0D06  
                                      u3201 2126                                        u3121 200C  
                                      u3041 1D80                                        u2401 14E6  
                                      u4001 0D02                                        u3210 2164  
                                      u3130 2030                                        u3050 1D94  
                                      u2410 1500                                        u2330 3094  
                                      u4010 0D30                                        u3211 2160  
                                      u3131 202C                                        u3115 1FAC  
                                      u3051 1D90                                        u2411 14FC  
                                      u2331 3090                                        u4011 0D2C  
                                      u3220 3224                                        u3300 331C  
                                      u3140 2042                                        u3060 1DD4  
                                      u2500 163A                                        u2420 1512  
                                      u2340 30A6                                        u4100 10FC  
                                      u4020 0E78                                        u3221 3220  
                                      u3301 3318                                        u3141 203E  
                                      u3061 1DD0                                        u2501 1636  
                                      u2421 150E                                        u2341 30A2  
                                      u4101 10F8                                        u4021 0E74  
                                      u3230 323E                                        u3310 333A  
                                      u3150 2070                                        u3070 1DE6  
                                      u2510 165A                                        u2430 1522  
                                      u2350 30CE                                        u4110 110E  
                                      u4030 0EDE                                        u3231 323A  
                                      u3311 3336                                        u3151 206C  
                                      u3071 1DE2                                        u2511 1656  
                                      u2431 151E                                        u2351 30CA  
                                      u4111 110A                                        u4031 0EDA  
                                      u3240 3264                                        u3320 3350  
                                      u3400 2D60                                        u3160 2086  
                                      u3080 1DF6                                        u2600 179A  
                                      u2520 1668                                        u2440 155E  
                                      u2360 3104                                        u4200 12E0  
                                      u4120 111C                                        u4040 0F26  
                                      u3241 3260                                        u3321 334C  
                                      u3401 2D5C                                        u3161 2082  
                                      u3081 1DF2                                        u2601 1796  
                                      u2521 1664                                        u2441 155A  
                                      u2361 3100                                        u4201 12DC  
                                      u4121 1118                                        u4041 0F22  
                                      u3250 3282                                        u3330 3374  
                                      u3410 2DB0                                        u3170 209A  
                                      u3090 1E2C                                        u2610 17C6  
                                      u2530 1678                                        u2450 156C  
                                      u2370 1486                                        u4210 130E  
                                      u4130 1136                                        u4050 0F36  
                                      u3251 327E                                        u3331 3370  
                                      u3411 2DAC                                        u3171 2096  
                                      u3091 1E28                                        u2611 17C2  
                                      u2531 1674                                        u2451 1568  
                                      u2371 1482                                        u4211 130A  
                                      u4131 1132                                        u4051 0F32  
                                      u3260 329E                                        u3340 33B4  
                                      u3180 20B4                                        u3420 38E6  
                                      u2700 18A8                                        u2620 17D6  
                                      u2540 16AA                                        u2460 15DA  
                                      u2380 1498                                        u3500 315C  
                                      u4220 1392                                        u4140 1144  
                                      u4060 0FD0                                        u4300 2FD6  
                                      u3261 329A                                        u3341 33B0  
                                      u3181 20B0                                        u3421 38E2  
                                      u2701 18A4                                        u2621 17D2  
                                      u2541 16A6                                        u2461 15D6  
                                      u2381 1494                                        u3501 3158  
                                      u4221 138E                                        u4141 1140  
                                      u4061 0FCC                                        u4301 2FD2  
                            _Inicializa_ADC 3A24                                        u3270 32C4  
                                      u3350 33F2                                        u3190 20FC  
                                      u2710 18BA                                        u2630 17F2  
                                      u2550 16B8                                        u2470 15F2  
                                      u2390 14A8                                        u3430 2BC6  
                                      u3510 317E                                        u4230 13AC  
                                      u4150 119C                                        u4070 101E  
                                      u4310 3008                                        u3271 32C0  
                                      u3351 33EE                                        u3191 20F8  
                                      u2711 18B6                                        u2631 17EE  
                                      u2551 16B4                                        u2471 15EC  
                                      u2391 14A4                                        u3431 2BC2  
                                      u3511 317A                                        u4231 13A8  
                                      u4151 1198                                        u4071 101A  
                                      u4311 3004                                        u3280 32E8  
                                      u2800 219C                                        u3360 3426  
                                      u2720 18CA                                        u2640 1802  
                                      u2560 16D6                                        u2480 15F4  
                                      u3440 2BFA                                        u3600 2EA6  
                                      u3520 31D4                                        u4240 13C4  
                                      u4160 126E                                        u4080 1046  
                                      u4320 3024                                        u4400 1AE8  
                                      u3281 32E4                                        u2801 2198  
                                      u3361 3422                                        u2721 18C6  
                                      u2641 17FE                                        u2561 16D2  
                                      u3521 31D0                                        u4241 13C0  
                                      u4161 126A                                        u4081 1042  
                                      u4321 3020                                        u4401 1AE4  
                                      u3290 3302                                        u2810 21AE  
                                      u3370 2CE4                                        u2730 18EA  
                                      u2650 1814                                        u2570 170E  
                                      u2490 161C                                        u3450 2C28  
                                      u3530 31E4                                        u3610 3690  
                                      u4250 1420                                        u4170 128A  
                                      u4090 10EA                                        u4330 3036  
                                      u4410 1B2A                                        u3291 32FE  
                                      u2811 21AA                                        u3371 2CE0  
                                      u2731 18E6                                        u2651 1810  
                                      u2571 170A                                        u2491 1618  
                                      u3451 2C24                                        u3531 31E0  
                                      u4251 141C                                        u4171 1286  
                                      u4091 10E6                                        u4331 3032  
                                      u4411 1B26                                        u4500 39B6  
                                      u4260 2A8E                                        u2900 2366  
                                      u2820 21BE                                        u3380 2D22  
                                      u2740 18FC                                        u2660 182A  
                                      u2580 1754                                        u3460 2C3C  
                                      u3540 2DFA                                        u3700 2660  
                                      u3620 36A2                                        u4180 129C  
                                      u4340 305E                                        u4420 1BD8  
                                      u4501 39B2                                        u4261 2A8A  
                                      u2901 2362                                        u2821 21BA  
                                      u3381 2D1E                                        u2741 18F8  
                                      u2661 1826                                        u2581 1750  
                                      u3461 2C38                                        u3445 2BF0  
                                      u3701 265C                                        u3621 369E  
                                      u4181 1298                                        u4341 305A  
                                      u4421 1BD4                                        u4510 2740  
                                      u4270 2AC4                                        u2910 238A  
                                      u2830 2202                                        u3390 2D40  
                                      u2750 1918                                        u2670 1840  
                                      u2590 178A                                        u3470 2C64  
                                      u3550 2E18                                        u3710 26B4  
                                      u3630 3776                                        u4190 12AA  
                                      u4430 1C3C                                        u4350 1950  
                                      u4511 273C                                        u4271 2AC0  
                                      u2911 2386                                        u2831 21FE  
                                      u3391 2D3C                                        u2751 1914  
                                      u2671 183C                                        u2591 1786  
                                      u3471 2C60                                        u3551 2E14  
                                      u3631 3772                                        u4191 12A6  
                                      u4431 1C38                                        u4351 194C  
                                      u4600 28CE                                        u4520 274E  
                                      u4280 2B78                                        u2920 23A0  
                                      u2840 2214                                        u2680 1854  
                                      u3480 2C84                                        u3560 2E40  
                                      u3720 26D0                                        u3640 2564  
                                      u2760 3816                                        u3800 08E4  
                                      u4440 1CD8                                        u4360 1998  
                                      u4601 28CA                                        u4521 274A  
                                      u4281 2B74                                        u2921 239C  
                                      u2841 2210                                        u2681 1850  
                                      u3481 2C80                                        u3561 2E3C  
                                      u3545 2DF0                                        u3721 26CC  
                                      u2761 3812                                        u3617 3686  
                                      u3801 08E0                                        u4441 1CD4  
                                      u4361 1994                                        u4610 3646  
                                      u4530 27AA                                        u4450 34AE  
                                      u4290 2B8A                                        u2930 23BE  
                                      u2850 2224                                        u2690 186E  
                                      u3490 2C94                                        u3570 2E6A  
                                      u3730 270C                                        u3650 2592  
                                      u2770 3968                                        u3810 08F6  
                                      u4370 19D2                                        u4611 3642  
                                      u4531 27A6                                        u4451 34AA  
                                      u4291 2B86                                        u2931 23BA  
                                      u2851 2220                                        u2691 186A  
                                      u3491 2C90                                        u3571 2E66  
                                      u3731 2708                                        u3715 26AA  
                                      u3651 258E                                        u2771 3964  
                                      u3811 08F2                                        u4371 19CE  
                                      u4540 2800                                        u4460 34DA  
                                      u3740 3938                                        u2940 23DE  
                                      u2860 2264                                        u3660 25B4  
                                      u2780 38C8                                        u3900 0BEC  
                                      u3820 093E                                        u4380 1A78  
                                      u4620 2A58                                        u4541 27FC  
                                      u3741 3932                                        u2941 23DA  
                                      u2861 2260                                        u3661 25B0  
                                      u3645 255A                                        u2781 38C2  
                                      u3901 0BE8                                        u3821 093A  
                                      u4381 1A74                                        u4621 2A54  
                                      u4550 284A                                        u4470 3512  
                                      u3750 393A                                        u2950 23F0  
                                      u2870 22A4                                        u3590 2EA4  
                                      u2790 38CA                                        u3910 0C0E  
                                      u3830 096A                                        u4390 1AA8  
                                      u4630 2EF6                                        u4551 2846  
                                      u2951 23EC                                        u2871 22A0  
                                      u3591 2E9E                                        u3911 0C0A  
                                      u3831 0966                                        u4391 1AA4  
                                      u4631 2EF2                                        u4560 2868  
                                      u4480 3522                                        u3760 370E  
                                      u2960 241E                                        u2880 231A  
                                      u3680 2620                                        u3920 0C34  
                                      u3840 09FA                                        u4640 2F6C  
                                      u4561 2864                                        u4481 351E  
                                      u3761 370A                                        u2961 241A  
                                      u2881 2316                                        u3585 2E7C  
                                      u3681 261C                                        u3921 0C30  
                                      u3841 09F6                                        u4641 2F68  
                                      u4570 2878                                        u3770 373C  
                                      u2970 2434                                        u2890 233C  
                                      u3690 2644                                        u3930 0C4A  
                                      u3850 0A26                                        u4490 35DE  
                                      u4571 2874                                        u4707 34E8  
                                      u4467 34D0                                        u3771 3738  
                                      u2971 2430                                        u2891 2338  
                                      u3675 25C8                                        u3931 0C46  
                                      u3851 0A22                                        u4491 35DA  
                                      u4580 2886                                        u2980 2448  
                                      u3676 25D2                                        u3940 0C66  
                                      u3860 0AAE                                        u3780 0886  
                                      u4581 2882                                        u4717 3866  
                                      u4477 3508                                        u2981 2444  
                                      u3677 25E2                                        u3941 0C62  
                                      u3861 0AAA                                        u3781 0882  
                                      u4590 28C0                                        u2990 2462  
                                      u3950 0C9C                                        u3870 0B42  
                                      u3790 08D6                                        u4591 28BC  
                                      u4727 387A                                        u2991 245E  
                                      u3695 263A                                        u3951 0C98  
                                      u3871 0B3E                                        u3791 08D2  
                                      u3960 0CC2                                        u3880 0BB4  
                                      u4737 388C                                        u3961 0CBE  
                                      u3881 0BB0                                        u4657 2F0E  
                                      u3970 0CD4                                        u3890 0BDA  
                                      u4747 3622                                        u3971 0CD0  
                                      u3891 0BD6                                        u4667 2F4C  
                                      u3980 0CE2                                        u4757 39E2  
                                      u3981 0CDE                                        u4677 2F9A  
                                      u3990 0CF8                                        u4767 39F2  
                                      u3991 0CF4                                        u4687 3578  
                                      u4697 3996                              _Inicializa_LCD 35E8  
                                      _dbuf 0100                           Inicializa_LCD@ini 00D3  
                                      _atoi 2A5A                                        _main 2EB8  
                                      _prec 00CF                                        _nout 00CB  
                                      pad@i 0018                                        pad@p 0015  
                                      fsr1h 000FE2                                        fsr2h 000FDA  
                                      indf1 000FE7                                        indf2 000FDF  
                                      fsr1l 000FE1                                        pad@w 001A  
                                      fsr2l 000FD9                               ___fpclassifyf 2DBA  
                                      prodh 000FF4                                        prodl 000FF3  
                                      start 0000                         __end_of_Comando_LCD 39FE  
                           ___fldiv@new_exp 0012                             __end_of_Ler_ADC 39D2  
                              ___param_bank 000000                                       ??_pad 0017  
            __end_of_turnon_coolerandheater 3586                               ___fltol@sign1 0009  
                                     ?_atoi 0008                             __end_of___fladd 192C  
                                     ?_main 0001                             __end_of___fldiv 251C  
                           __end_of___awdiv 32D6                             __end_of___flneg 3908  
                                     STR_12 084D                                       STR_13 0855  
                                     STR_16 0859                                       STR_18 0859  
                           __end_of___awmod 3386                             __end_of___flmul 2182  
                           __end_of___flsub 37D4                             __end_of___fltol 2CB6  
                           ___awdiv@divisor 0003                             ___awdiv@counter 0005  
                              vfpfcnvrt@fmt 004E                                       _PORTB 000F81  
                                     _PORTC 000F82                                       _PORTD 000F83  
                                     _PORTE 000F84                                       _TRISA 000F92  
                                     _TRISB 000F93                                       _TRISD 000F95  
                                     _TRISE 000F96                       Escreve_C_LCD@caracter 0002  
                    __end_of_Inicializa_ADC 3A36                      __end_of_Inicializa_LCD 3648  
                                     _flags 00D1                                       _fputc 3082  
                                     _fputs 37D4                             __end_of_isdigit 3940  
                                     atoi@n 0010                                       pad@fp 0011  
                                     atoi@s 0008                                       _width 00CD  
                                     _putch 3A44                             __end_of_isspace 3748  
                           __end_of_isupper 38D0                                       tablat 000FF5  
                       __end_of_Escreve_LCD 3524                                       status 000FD8  
                           __end_of_sprintf 36F6                              ?___fpclassifyf 0001  
                           __end_of_tolower 378E                             __end_of_strncmp 3082  
                       Escreve_LCD@caracter 0003                             __initialization 3818  
                           ??_Escreve_C_LCD 0001                                __end_of_atoi 2BB0  
                              __end_of_main 2FAC                                      ??_atoi 000A  
                                    ??_main 00C1                               __activetblptr 000002  
                           ?_Inicializa_ADC 0001                             ?_Inicializa_LCD 0001  
                                    _ADCON0 000FC2                                      _ADCON1 000FC1  
                                    _ADCON2 000FC0                                      ?_fputc 0001  
                                    ?_fputs 000A                                      _ADRESH 000FC4  
                                    _ADRESL 000FC3                            ___awdiv@dividend 0001  
                                    ?_putch 0001                                 _Comando_LCD 39D2  
                                 ??_Ler_ADC 0003                            __end_of___xxtofl 28E2  
                              vfprintf@cfmt 005E                    ?_turnoff_coolerandheater 0001  
                                    ___flge 2CB6                                      ___fleq 3386  
                                 ??___fladd 0030                                      ___wmul 39FE  
                                 ??___fldiv 0009                                   ??___awdiv 0005  
                                 ??___flneg 0005                                   ??___awmod 0005  
                                 ??___flmul 0017                                   ??___flsub 0040  
                                 ??___fltol 0005                                      _efgtoa 085E  
                                    _floorf 251C                                      clear_0 383E  
                                    clear_1 384A                            ___awdiv@quotient 0007  
                           ___awmod@divisor 0003                                      isa$std 000001  
                           ___awmod@counter 0005                                      pad@buf 0013  
                                    _strcpy 3648                                      _strlen 3940  
                                    fputc@c 0001                                      fputs@c 000E  
                                    fputs@i 000F                                      fputs@s 000A  
                                 ??_isdigit 0003                             ___fpclassifyf@e 0009  
                           ___fpclassifyf@u 000B                             ___fpclassifyf@x 0001  
                              __mediumconst 0000                                   ??_isspace 0003  
                                    tblptrh 000FF7                                   ??_isupper 0003  
                                    tblptrl 000FF6                                      tblptru 000FF8  
                               _Escreve_LCD 34B6                                      putch@c 0001  
                          __end_of_vfprintf 35E8                                   ??_sprintf 0060  
                                 ??_tolower 0009                                   ??_strncmp 0007  
                                ___flge@ff1 0028                                  ___flge@ff2 002C  
                           ??___fpclassifyf 0005                                ___xxtofl@arg 000B  
                              ___xxtofl@exp 000A                                ___xxtofl@val 0001  
                                ___fleq@ff1 0001                                  ___fleq@ff2 0005  
                                __accesstop 0060                     __end_of__initialization 3850  
                                ___flneg@f1 0001                               ___rparam_used 000001  
                                ___fltol@f1 0001                             Inicializa_LCD@x 0004  
                            __pcstackCOMRAM 0001                       __end_of_Posiciona_LCD 34B6  
                              __pidataBANK0 3A36                           ??_printDisplayLCD 000E  
                             __end_of_fputc 314C                               __end_of_fputs 3818  
                             __end_of_putch 3A46                  ?_potentiometer_temperature 0001  
                                   ??_fputc 0005                                     ??_fputs 000E  
                                   ??_putch 0001                                  __pbssBANK0 00C3  
                                __pbssBANK1 0100                                     ?___flge 0028  
                                   ?___fleq 0001                                     ?___wmul 0001  
                                   ?_efgtoa 0040                                     ?_floorf 001A  
                                   ?_strcpy 0001                                     ?_strlen 0001  
                                 ?___xxtofl 0001                                     _Ler_ADC 39A6  
                                   __Hparam 0000                                     __Lparam 0000  
                                   ___fladd 146C                                     ___fldiv 2182  
                                   ___awdiv 3212                                     ___flneg 38D0  
                                   ___awmod 32D6                                     ___flmul 1D58  
                                   ___flsub 378E                                     ___fltol 2BB0  
                                 ?_vfprintf 0092                                __psmallconst 0800  
                                   __pcinit 3818  potentiometer_temperature@temperatura_texto 00AD  
                                   __ramtop 0800                                     __ptext0 2EB8  
                                   __ptext1 3524                                     __ptext2 3A3E  
                                   __ptext3 28E2                                     __ptext4 36A4  
                                   __ptext5 3586                                     __ptext6 192C  
                                   __ptext7 2FAC                                     __ptext8 085E  
                                   __ptext9 3748                            ??_Inicializa_ADC 0001  
                          ??_Inicializa_LCD 0003                                     _isdigit 3908  
                                ??___xxtofl 0005                            ___awmod@dividend 0001  
                                   _isspace 36F6                                     _isupper 3898  
                                   efgtoa@c 0046                                     efgtoa@d 0072  
                                   efgtoa@e 008A                                     efgtoa@f 0042  
                                   efgtoa@g 0086                                     efgtoa@h 007C  
                                   efgtoa@i 0084                                     efgtoa@l 0080  
                                   efgtoa@m 006C                                     efgtoa@n 008C  
                                   efgtoa@p 0076                                     efgtoa@t 0066  
                                   efgtoa@u 008E                                     efgtoa@w 0078  
                                   atoi@neg 000E                                     _sprintf 36A4  
                                   _tolower 3748                                     _strncmp 2FAC  
                              ?_Comando_LCD 0001                        end_of_initialization 3850  
                                   floorf@e 0028                                     floorf@m 0024  
                                   floorf@u 002A                                     floorf@x 001A  
                                   fputc@fp 0003                               __Lmediumconst 0000  
                                   fputs@fp 000C                           __end_of_vfpfcnvrt 1D58  
                                efgtoa@mode 007B                                  efgtoa@sign 0074  
                                   postdec1 000FE5                                     postdec2 000FDD  
                                   postinc0 000FEE                                     postinc1 000FE6  
                                   postinc2 000FDE                       __end_of_Escreve_C_LCD 3898  
                                ??_vfprintf 005E                                     strcpy@d 0009  
                                   strlen@a 0003                                     strcpy@s 0007  
                                   strlen@s 0001                                   _PORTBbits 000F81  
                                 _PORTCbits 000F82                                   _PORTEbits 000F84  
                               ___fladd@grs 0037                               ___xxtofl@sign 0009  
                                 _TRISAbits 000F92                                   _TRISCbits 000F94  
                            Posiciona_LCD@x 0007                                   _TRISEbits 000F96  
                              ?_Escreve_LCD 0003                                 ___fldiv@grs 0014  
                               ___fldiv@rem 000D                                 ___flmul@grs 001C  
                           _printDisplayLCD 3976                    ??_turnon_coolerandheater 0010  
                            __end_of___flge 2DBA                              __end_of___fleq 3430  
                               vfpfcnvrt@ap 0050                                 vfpfcnvrt@ct 005A  
                               vfpfcnvrt@fp 004C                              __end_of___wmul 3A24  
                            __end_of_efgtoa 146C                              __end_of_floorf 272E  
                                floorf@F526 00C3                              __end_of_strcpy 36A4  
                            __end_of_strlen 3976                         start_initialization 3818  
                               __end_of_pad 3212                 ??_potentiometer_temperature 0060  
                     __end_of___fpclassifyf 2EB8                                 vfprintf@fmt 0094  
                                  ??___flge 0030                                    ??___fleq 0009  
                                  ??___wmul 0005                                    ??_efgtoa 0047  
                               __pdataBANK0 00D3            potentiometer_temperature@digital 00BB  
                                  ??_floorf 001E                                    ??_strcpy 0005  
                                  ??_strlen 0003                                   ___fladd@a 002C  
                                 ___fladd@b 0028                                   ___fldiv@a 0005  
                                 ___fldiv@b 0001                                   ___flmul@a 0013  
                                 ___flmul@b 000F                                   ___flsub@a 003C  
                                 ___flsub@b 0038                               __pcstackBANK0 0060  
                   __end_of_printDisplayLCD 39A6                                    ?_Ler_ADC 0001  
                               _efgtoa$1050 0060                                 _efgtoa$1058 0062  
                               _efgtoa$1059 0064                   _potentiometer_temperature 28E2  
                                  ?___fladd 0028                                    ?___fldiv 0001  
                                  ?___awdiv 0001                                    ?___flneg 0001  
                                  ?___awmod 0001                                    ?___flmul 000F  
                                  ?___flsub 0038                                    ?___fltol 0001  
                               __smallconst 0800                     _turnoff_coolerandheater 3A3E  
                                  ?_isdigit 0001                                    ?_isspace 0001  
                                  ?_isupper 0001                                    ?_sprintf 0098  
                                  ?_tolower 0007                                    ?_strncmp 0001  
                            ___wmul@product 0005                               _Posiciona_LCD 3430  
                                 _vfpfcnvrt 192C                                  _ADCON0bits 000FC2  
                         ___wmul@multiplier 0001                      _turnon_coolerandheater 3524  
                              _isspace$1137 0007                            ?_printDisplayLCD 0008  
                                vfpfcnvrt@c 005D                                  vfpfcnvrt@f 0056  
                                 copy_data0 382C                                    __Hrparam 0000  
                                vfprintf@ap 0096                                    __Lrparam 0000  
                                vfprintf@fp 0092                              ?_Posiciona_LCD 0003  
                                ?_vfpfcnvrt 004C                   ??_turnoff_coolerandheater 0001  
                        ___fpclassifyf@F465 00C7                                  sprintf@fmt 009A  
                                  ___xxtofl 272E                                    __ptext10 3898  
                                  __ptext11 3648                                    __ptext20 378E  
                                  __ptext12 314C                                    __ptext21 146C  
                                  __ptext13 3940                                    __ptext30 36F6  
                                  __ptext22 38D0                                    __ptext14 37D4  
                                  __ptext31 3908                                    __ptext23 1D58  
                                  __ptext15 3082                                    __ptext40 35E8  
                                  __ptext32 39FE                                    __ptext24 2CB6  
                                  __ptext16 3A44                                    __ptext41 39D2  
                                  __ptext33 3976                                    __ptext25 3386  
                                  __ptext17 251C                                    __ptext34 3430  
                                  __ptext26 2182                                    __ptext18 2DBA  
                                  __ptext35 34B6                                    __ptext27 32D6  
                                  __ptext19 2BB0                                    __ptext36 385A  
                                  __ptext28 3212                                    __ptext37 272E  
                                  __ptext29 2A5A                                    __ptext38 39A6  
                                  __ptext39 3A24                                  strcpy@dest 0001  
         potentiometer_temperature@voltagem 00B7                                    efgtoa@fp 0040  
                                  efgtoa@ne 006A                                    efgtoa@pp 0068  
                                  efgtoa@ou 006E                                    isa$xinst 000000  
                                  _vfprintf 3586                                    isdigit@c 0001  
                       printDisplayLCD@line 0008        potentiometer_temperature@temperatura 00BD  
                       printDisplayLCD@text 000C                                   sprintf@ap 00A0  
           __end_of_turnoff_coolerandheater 3A44                                    isspace@c 0001  
                                 strcpy@src 0003                                    isupper@c 0001  
                                 strncmp@_l 0001                                   strncmp@_r 0003  
                           ??_Posiciona_LCD 0004                                 efgtoa@nmode 007A  
                               Ler_ADC@temp 0005                               _Escreve_C_LCD 385A  
                               ??_vfpfcnvrt 0052                          printDisplayLCD@col 000A  
                                  sprintf@f 00A2                                    tolower@c 0007  
                                  sprintf@s 0098           __end_of_potentiometer_temperature 2A5A  
                                  strncmp@l 0008                                    strncmp@n 0005  
                                  strncmp@r 000A                               ___fladd@signs 0034  
                             ??_Comando_LCD 0001                         Posiciona_LCD@coluna 0003  
                              ___fladd@aexp 0035                                ___fladd@bexp 0036  
                        Posiciona_LCD@linha 0006  
